
CLI.elf:     file format elf32-littlearm

Sections:
Idx Name          Size      VMA       LMA       File off  Algn
  0 .isr_vector   000001ac  08000000  08000000  00001000  2**0
                  CONTENTS, ALLOC, LOAD, READONLY, DATA
  1 .text         00003fbc  080001b0  080001b0  000011b0  2**4
                  CONTENTS, ALLOC, LOAD, READONLY, CODE
  2 .rodata       00000208  0800416c  0800416c  0000516c  2**2
                  CONTENTS, ALLOC, LOAD, READONLY, DATA
  3 .ARM.extab    00000000  08004374  08004374  0000605c  2**0
                  CONTENTS
  4 .ARM          00000008  08004374  08004374  00005374  2**2
                  CONTENTS, ALLOC, LOAD, READONLY, DATA
  5 .preinit_array 00000000  0800437c  0800437c  0000605c  2**0
                  CONTENTS, ALLOC, LOAD, DATA
  6 .init_array   00000004  0800437c  0800437c  0000537c  2**2
                  CONTENTS, ALLOC, LOAD, READONLY, DATA
  7 .fini_array   00000004  08004380  08004380  00005380  2**2
                  CONTENTS, ALLOC, LOAD, READONLY, DATA
  8 .data         0000005c  20000000  08004384  00006000  2**2
                  CONTENTS, ALLOC, LOAD, DATA
  9 .ccmram       00000000  10000000  10000000  0000605c  2**0
                  CONTENTS
 10 .bss          000006f4  2000005c  2000005c  0000605c  2**2
                  ALLOC
 11 ._user_heap_stack 00000600  20000750  20000750  0000605c  2**0
                  ALLOC
 12 .ARM.attributes 00000030  00000000  00000000  0000605c  2**0
                  CONTENTS, READONLY
 13 .debug_info   00020c48  00000000  00000000  0000608c  2**0
                  CONTENTS, READONLY, DEBUGGING, OCTETS
 14 .debug_abbrev 00003f30  00000000  00000000  00026cd4  2**0
                  CONTENTS, READONLY, DEBUGGING, OCTETS
 15 .debug_loclists 0000f937  00000000  00000000  0002ac04  2**0
                  CONTENTS, READONLY, DEBUGGING, OCTETS
 16 .debug_aranges 00001788  00000000  00000000  0003a540  2**3
                  CONTENTS, READONLY, DEBUGGING, OCTETS
 17 .debug_rnglists 0000121d  00000000  00000000  0003bcc8  2**0
                  CONTENTS, READONLY, DEBUGGING, OCTETS
 18 .debug_macro  0002aae8  00000000  00000000  0003cee5  2**0
                  CONTENTS, READONLY, DEBUGGING, OCTETS
 19 .debug_line   000293fa  00000000  00000000  000679cd  2**0
                  CONTENTS, READONLY, DEBUGGING, OCTETS
 20 .debug_str    001006cd  00000000  00000000  00090dc7  2**0
                  CONTENTS, READONLY, DEBUGGING, OCTETS
 21 .comment      00000043  00000000  00000000  00191494  2**0
                  CONTENTS, READONLY
 22 .debug_frame  0000475c  00000000  00000000  001914d8  2**2
                  CONTENTS, READONLY, DEBUGGING, OCTETS
 23 .debug_line_str 00000058  00000000  00000000  00195c34  2**0
                  CONTENTS, READONLY, DEBUGGING, OCTETS

Disassembly of section .text:

080001b0 <__do_global_dtors_aux>:
 80001b0:	b510      	push	{r4, lr}
 80001b2:	4c05      	ldr	r4, [pc, #20]	@ (80001c8 <__do_global_dtors_aux+0x18>)
 80001b4:	7823      	ldrb	r3, [r4, #0]
 80001b6:	b933      	cbnz	r3, 80001c6 <__do_global_dtors_aux+0x16>
 80001b8:	4b04      	ldr	r3, [pc, #16]	@ (80001cc <__do_global_dtors_aux+0x1c>)
 80001ba:	b113      	cbz	r3, 80001c2 <__do_global_dtors_aux+0x12>
 80001bc:	4804      	ldr	r0, [pc, #16]	@ (80001d0 <__do_global_dtors_aux+0x20>)
 80001be:	f3af 8000 	nop.w
 80001c2:	2301      	movs	r3, #1
 80001c4:	7023      	strb	r3, [r4, #0]
 80001c6:	bd10      	pop	{r4, pc}
 80001c8:	2000005c 	.word	0x2000005c
 80001cc:	00000000 	.word	0x00000000
 80001d0:	08004154 	.word	0x08004154

080001d4 <frame_dummy>:
 80001d4:	b508      	push	{r3, lr}
 80001d6:	4b03      	ldr	r3, [pc, #12]	@ (80001e4 <frame_dummy+0x10>)
 80001d8:	b11b      	cbz	r3, 80001e2 <frame_dummy+0xe>
 80001da:	4903      	ldr	r1, [pc, #12]	@ (80001e8 <frame_dummy+0x14>)
 80001dc:	4803      	ldr	r0, [pc, #12]	@ (80001ec <frame_dummy+0x18>)
 80001de:	f3af 8000 	nop.w
 80001e2:	bd08      	pop	{r3, pc}
 80001e4:	00000000 	.word	0x00000000
 80001e8:	20000060 	.word	0x20000060
 80001ec:	08004154 	.word	0x08004154

080001f0 <strcmp>:
 80001f0:	f810 2b01 	ldrb.w	r2, [r0], #1
 80001f4:	f811 3b01 	ldrb.w	r3, [r1], #1
 80001f8:	2a01      	cmp	r2, #1
 80001fa:	bf28      	it	cs
 80001fc:	429a      	cmpcs	r2, r3
 80001fe:	d0f7      	beq.n	80001f0 <strcmp>
 8000200:	1ad0      	subs	r0, r2, r3
 8000202:	4770      	bx	lr
	...

08000210 <memchr>:
 8000210:	f001 01ff 	and.w	r1, r1, #255	@ 0xff
 8000214:	2a10      	cmp	r2, #16
 8000216:	db2b      	blt.n	8000270 <memchr+0x60>
 8000218:	f010 0f07 	tst.w	r0, #7
 800021c:	d008      	beq.n	8000230 <memchr+0x20>
 800021e:	f810 3b01 	ldrb.w	r3, [r0], #1
 8000222:	3a01      	subs	r2, #1
 8000224:	428b      	cmp	r3, r1
 8000226:	d02d      	beq.n	8000284 <memchr+0x74>
 8000228:	f010 0f07 	tst.w	r0, #7
 800022c:	b342      	cbz	r2, 8000280 <memchr+0x70>
 800022e:	d1f6      	bne.n	800021e <memchr+0xe>
 8000230:	b4f0      	push	{r4, r5, r6, r7}
 8000232:	ea41 2101 	orr.w	r1, r1, r1, lsl #8
 8000236:	ea41 4101 	orr.w	r1, r1, r1, lsl #16
 800023a:	f022 0407 	bic.w	r4, r2, #7
 800023e:	f07f 0700 	mvns.w	r7, #0
 8000242:	2300      	movs	r3, #0
 8000244:	e8f0 5602 	ldrd	r5, r6, [r0], #8
 8000248:	3c08      	subs	r4, #8
 800024a:	ea85 0501 	eor.w	r5, r5, r1
 800024e:	ea86 0601 	eor.w	r6, r6, r1
 8000252:	fa85 f547 	uadd8	r5, r5, r7
 8000256:	faa3 f587 	sel	r5, r3, r7
 800025a:	fa86 f647 	uadd8	r6, r6, r7
 800025e:	faa5 f687 	sel	r6, r5, r7
 8000262:	b98e      	cbnz	r6, 8000288 <memchr+0x78>
 8000264:	d1ee      	bne.n	8000244 <memchr+0x34>
 8000266:	bcf0      	pop	{r4, r5, r6, r7}
 8000268:	f001 01ff 	and.w	r1, r1, #255	@ 0xff
 800026c:	f002 0207 	and.w	r2, r2, #7
 8000270:	b132      	cbz	r2, 8000280 <memchr+0x70>
 8000272:	f810 3b01 	ldrb.w	r3, [r0], #1
 8000276:	3a01      	subs	r2, #1
 8000278:	ea83 0301 	eor.w	r3, r3, r1
 800027c:	b113      	cbz	r3, 8000284 <memchr+0x74>
 800027e:	d1f8      	bne.n	8000272 <memchr+0x62>
 8000280:	2000      	movs	r0, #0
 8000282:	4770      	bx	lr
 8000284:	3801      	subs	r0, #1
 8000286:	4770      	bx	lr
 8000288:	2d00      	cmp	r5, #0
 800028a:	bf06      	itte	eq
 800028c:	4635      	moveq	r5, r6
 800028e:	3803      	subeq	r0, #3
 8000290:	3807      	subne	r0, #7
 8000292:	f015 0f01 	tst.w	r5, #1
 8000296:	d107      	bne.n	80002a8 <memchr+0x98>
 8000298:	3001      	adds	r0, #1
 800029a:	f415 7f80 	tst.w	r5, #256	@ 0x100
 800029e:	bf02      	ittt	eq
 80002a0:	3001      	addeq	r0, #1
 80002a2:	f415 3fc0 	tsteq.w	r5, #98304	@ 0x18000
 80002a6:	3001      	addeq	r0, #1
 80002a8:	bcf0      	pop	{r4, r5, r6, r7}
 80002aa:	3801      	subs	r0, #1
 80002ac:	4770      	bx	lr
 80002ae:	bf00      	nop

080002b0 <__aeabi_uldivmod>:
 80002b0:	b953      	cbnz	r3, 80002c8 <__aeabi_uldivmod+0x18>
 80002b2:	b94a      	cbnz	r2, 80002c8 <__aeabi_uldivmod+0x18>
 80002b4:	2900      	cmp	r1, #0
 80002b6:	bf08      	it	eq
 80002b8:	2800      	cmpeq	r0, #0
 80002ba:	bf1c      	itt	ne
 80002bc:	f04f 31ff 	movne.w	r1, #4294967295
 80002c0:	f04f 30ff 	movne.w	r0, #4294967295
 80002c4:	f000 b96a 	b.w	800059c <__aeabi_idiv0>
 80002c8:	f1ad 0c08 	sub.w	ip, sp, #8
 80002cc:	e96d ce04 	strd	ip, lr, [sp, #-16]!
 80002d0:	f000 f806 	bl	80002e0 <__udivmoddi4>
 80002d4:	f8dd e004 	ldr.w	lr, [sp, #4]
 80002d8:	e9dd 2302 	ldrd	r2, r3, [sp, #8]
 80002dc:	b004      	add	sp, #16
 80002de:	4770      	bx	lr

080002e0 <__udivmoddi4>:
 80002e0:	e92d 47f0 	stmdb	sp!, {r4, r5, r6, r7, r8, r9, sl, lr}
 80002e4:	9d08      	ldr	r5, [sp, #32]
 80002e6:	460c      	mov	r4, r1
 80002e8:	2b00      	cmp	r3, #0
 80002ea:	d14e      	bne.n	800038a <__udivmoddi4+0xaa>
 80002ec:	4694      	mov	ip, r2
 80002ee:	458c      	cmp	ip, r1
 80002f0:	4686      	mov	lr, r0
 80002f2:	fab2 f282 	clz	r2, r2
 80002f6:	d962      	bls.n	80003be <__udivmoddi4+0xde>
 80002f8:	b14a      	cbz	r2, 800030e <__udivmoddi4+0x2e>
 80002fa:	f1c2 0320 	rsb	r3, r2, #32
 80002fe:	4091      	lsls	r1, r2
 8000300:	fa20 f303 	lsr.w	r3, r0, r3
 8000304:	fa0c fc02 	lsl.w	ip, ip, r2
 8000308:	4319      	orrs	r1, r3
 800030a:	fa00 fe02 	lsl.w	lr, r0, r2
 800030e:	ea4f 471c 	mov.w	r7, ip, lsr #16
 8000312:	fa1f f68c 	uxth.w	r6, ip
 8000316:	fbb1 f4f7 	udiv	r4, r1, r7
 800031a:	ea4f 431e 	mov.w	r3, lr, lsr #16
 800031e:	fb07 1114 	mls	r1, r7, r4, r1
 8000322:	ea43 4301 	orr.w	r3, r3, r1, lsl #16
 8000326:	fb04 f106 	mul.w	r1, r4, r6
 800032a:	4299      	cmp	r1, r3
 800032c:	d90a      	bls.n	8000344 <__udivmoddi4+0x64>
 800032e:	eb1c 0303 	adds.w	r3, ip, r3
 8000332:	f104 30ff 	add.w	r0, r4, #4294967295
 8000336:	f080 8112 	bcs.w	800055e <__udivmoddi4+0x27e>
 800033a:	4299      	cmp	r1, r3
 800033c:	f240 810f 	bls.w	800055e <__udivmoddi4+0x27e>
 8000340:	3c02      	subs	r4, #2
 8000342:	4463      	add	r3, ip
 8000344:	1a59      	subs	r1, r3, r1
 8000346:	fa1f f38e 	uxth.w	r3, lr
 800034a:	fbb1 f0f7 	udiv	r0, r1, r7
 800034e:	fb07 1110 	mls	r1, r7, r0, r1
 8000352:	ea43 4301 	orr.w	r3, r3, r1, lsl #16
 8000356:	fb00 f606 	mul.w	r6, r0, r6
 800035a:	429e      	cmp	r6, r3
 800035c:	d90a      	bls.n	8000374 <__udivmoddi4+0x94>
 800035e:	eb1c 0303 	adds.w	r3, ip, r3
 8000362:	f100 31ff 	add.w	r1, r0, #4294967295
 8000366:	f080 80fc 	bcs.w	8000562 <__udivmoddi4+0x282>
 800036a:	429e      	cmp	r6, r3
 800036c:	f240 80f9 	bls.w	8000562 <__udivmoddi4+0x282>
 8000370:	4463      	add	r3, ip
 8000372:	3802      	subs	r0, #2
 8000374:	1b9b      	subs	r3, r3, r6
 8000376:	ea40 4004 	orr.w	r0, r0, r4, lsl #16
 800037a:	2100      	movs	r1, #0
 800037c:	b11d      	cbz	r5, 8000386 <__udivmoddi4+0xa6>
 800037e:	40d3      	lsrs	r3, r2
 8000380:	2200      	movs	r2, #0
 8000382:	e9c5 3200 	strd	r3, r2, [r5]
 8000386:	e8bd 87f0 	ldmia.w	sp!, {r4, r5, r6, r7, r8, r9, sl, pc}
 800038a:	428b      	cmp	r3, r1
 800038c:	d905      	bls.n	800039a <__udivmoddi4+0xba>
 800038e:	b10d      	cbz	r5, 8000394 <__udivmoddi4+0xb4>
 8000390:	e9c5 0100 	strd	r0, r1, [r5]
 8000394:	2100      	movs	r1, #0
 8000396:	4608      	mov	r0, r1
 8000398:	e7f5      	b.n	8000386 <__udivmoddi4+0xa6>
 800039a:	fab3 f183 	clz	r1, r3
 800039e:	2900      	cmp	r1, #0
 80003a0:	d146      	bne.n	8000430 <__udivmoddi4+0x150>
 80003a2:	42a3      	cmp	r3, r4
 80003a4:	d302      	bcc.n	80003ac <__udivmoddi4+0xcc>
 80003a6:	4290      	cmp	r0, r2
 80003a8:	f0c0 80f0 	bcc.w	800058c <__udivmoddi4+0x2ac>
 80003ac:	1a86      	subs	r6, r0, r2
 80003ae:	eb64 0303 	sbc.w	r3, r4, r3
 80003b2:	2001      	movs	r0, #1
 80003b4:	2d00      	cmp	r5, #0
 80003b6:	d0e6      	beq.n	8000386 <__udivmoddi4+0xa6>
 80003b8:	e9c5 6300 	strd	r6, r3, [r5]
 80003bc:	e7e3      	b.n	8000386 <__udivmoddi4+0xa6>
 80003be:	2a00      	cmp	r2, #0
 80003c0:	f040 8090 	bne.w	80004e4 <__udivmoddi4+0x204>
 80003c4:	eba1 040c 	sub.w	r4, r1, ip
 80003c8:	ea4f 481c 	mov.w	r8, ip, lsr #16
 80003cc:	fa1f f78c 	uxth.w	r7, ip
 80003d0:	2101      	movs	r1, #1
 80003d2:	fbb4 f6f8 	udiv	r6, r4, r8
 80003d6:	ea4f 431e 	mov.w	r3, lr, lsr #16
 80003da:	fb08 4416 	mls	r4, r8, r6, r4
 80003de:	ea43 4304 	orr.w	r3, r3, r4, lsl #16
 80003e2:	fb07 f006 	mul.w	r0, r7, r6
 80003e6:	4298      	cmp	r0, r3
 80003e8:	d908      	bls.n	80003fc <__udivmoddi4+0x11c>
 80003ea:	eb1c 0303 	adds.w	r3, ip, r3
 80003ee:	f106 34ff 	add.w	r4, r6, #4294967295
 80003f2:	d202      	bcs.n	80003fa <__udivmoddi4+0x11a>
 80003f4:	4298      	cmp	r0, r3
 80003f6:	f200 80cd 	bhi.w	8000594 <__udivmoddi4+0x2b4>
 80003fa:	4626      	mov	r6, r4
 80003fc:	1a1c      	subs	r4, r3, r0
 80003fe:	fa1f f38e 	uxth.w	r3, lr
 8000402:	fbb4 f0f8 	udiv	r0, r4, r8
 8000406:	fb08 4410 	mls	r4, r8, r0, r4
 800040a:	ea43 4304 	orr.w	r3, r3, r4, lsl #16
 800040e:	fb00 f707 	mul.w	r7, r0, r7
 8000412:	429f      	cmp	r7, r3
 8000414:	d908      	bls.n	8000428 <__udivmoddi4+0x148>
 8000416:	eb1c 0303 	adds.w	r3, ip, r3
 800041a:	f100 34ff 	add.w	r4, r0, #4294967295
 800041e:	d202      	bcs.n	8000426 <__udivmoddi4+0x146>
 8000420:	429f      	cmp	r7, r3
 8000422:	f200 80b0 	bhi.w	8000586 <__udivmoddi4+0x2a6>
 8000426:	4620      	mov	r0, r4
 8000428:	1bdb      	subs	r3, r3, r7
 800042a:	ea40 4006 	orr.w	r0, r0, r6, lsl #16
 800042e:	e7a5      	b.n	800037c <__udivmoddi4+0x9c>
 8000430:	f1c1 0620 	rsb	r6, r1, #32
 8000434:	408b      	lsls	r3, r1
 8000436:	fa22 f706 	lsr.w	r7, r2, r6
 800043a:	431f      	orrs	r7, r3
 800043c:	fa20 fc06 	lsr.w	ip, r0, r6
 8000440:	fa04 f301 	lsl.w	r3, r4, r1
 8000444:	ea43 030c 	orr.w	r3, r3, ip
 8000448:	40f4      	lsrs	r4, r6
 800044a:	fa00 f801 	lsl.w	r8, r0, r1
 800044e:	0c38      	lsrs	r0, r7, #16
 8000450:	ea4f 4913 	mov.w	r9, r3, lsr #16
 8000454:	fbb4 fef0 	udiv	lr, r4, r0
 8000458:	fa1f fc87 	uxth.w	ip, r7
 800045c:	fb00 441e 	mls	r4, r0, lr, r4
 8000460:	ea49 4404 	orr.w	r4, r9, r4, lsl #16
 8000464:	fb0e f90c 	mul.w	r9, lr, ip
 8000468:	45a1      	cmp	r9, r4
 800046a:	fa02 f201 	lsl.w	r2, r2, r1
 800046e:	d90a      	bls.n	8000486 <__udivmoddi4+0x1a6>
 8000470:	193c      	adds	r4, r7, r4
 8000472:	f10e 3aff 	add.w	sl, lr, #4294967295
 8000476:	f080 8084 	bcs.w	8000582 <__udivmoddi4+0x2a2>
 800047a:	45a1      	cmp	r9, r4
 800047c:	f240 8081 	bls.w	8000582 <__udivmoddi4+0x2a2>
 8000480:	f1ae 0e02 	sub.w	lr, lr, #2
 8000484:	443c      	add	r4, r7
 8000486:	eba4 0409 	sub.w	r4, r4, r9
 800048a:	fa1f f983 	uxth.w	r9, r3
 800048e:	fbb4 f3f0 	udiv	r3, r4, r0
 8000492:	fb00 4413 	mls	r4, r0, r3, r4
 8000496:	ea49 4404 	orr.w	r4, r9, r4, lsl #16
 800049a:	fb03 fc0c 	mul.w	ip, r3, ip
 800049e:	45a4      	cmp	ip, r4
 80004a0:	d907      	bls.n	80004b2 <__udivmoddi4+0x1d2>
 80004a2:	193c      	adds	r4, r7, r4
 80004a4:	f103 30ff 	add.w	r0, r3, #4294967295
 80004a8:	d267      	bcs.n	800057a <__udivmoddi4+0x29a>
 80004aa:	45a4      	cmp	ip, r4
 80004ac:	d965      	bls.n	800057a <__udivmoddi4+0x29a>
 80004ae:	3b02      	subs	r3, #2
 80004b0:	443c      	add	r4, r7
 80004b2:	ea43 400e 	orr.w	r0, r3, lr, lsl #16
 80004b6:	fba0 9302 	umull	r9, r3, r0, r2
 80004ba:	eba4 040c 	sub.w	r4, r4, ip
 80004be:	429c      	cmp	r4, r3
 80004c0:	46ce      	mov	lr, r9
 80004c2:	469c      	mov	ip, r3
 80004c4:	d351      	bcc.n	800056a <__udivmoddi4+0x28a>
 80004c6:	d04e      	beq.n	8000566 <__udivmoddi4+0x286>
 80004c8:	b155      	cbz	r5, 80004e0 <__udivmoddi4+0x200>
 80004ca:	ebb8 030e 	subs.w	r3, r8, lr
 80004ce:	eb64 040c 	sbc.w	r4, r4, ip
 80004d2:	fa04 f606 	lsl.w	r6, r4, r6
 80004d6:	40cb      	lsrs	r3, r1
 80004d8:	431e      	orrs	r6, r3
 80004da:	40cc      	lsrs	r4, r1
 80004dc:	e9c5 6400 	strd	r6, r4, [r5]
 80004e0:	2100      	movs	r1, #0
 80004e2:	e750      	b.n	8000386 <__udivmoddi4+0xa6>
 80004e4:	f1c2 0320 	rsb	r3, r2, #32
 80004e8:	fa20 f103 	lsr.w	r1, r0, r3
 80004ec:	fa0c fc02 	lsl.w	ip, ip, r2
 80004f0:	fa24 f303 	lsr.w	r3, r4, r3
 80004f4:	4094      	lsls	r4, r2
 80004f6:	430c      	orrs	r4, r1
 80004f8:	ea4f 481c 	mov.w	r8, ip, lsr #16
 80004fc:	fa00 fe02 	lsl.w	lr, r0, r2
 8000500:	fa1f f78c 	uxth.w	r7, ip
 8000504:	fbb3 f0f8 	udiv	r0, r3, r8
 8000508:	fb08 3110 	mls	r1, r8, r0, r3
 800050c:	0c23      	lsrs	r3, r4, #16
 800050e:	ea43 4301 	orr.w	r3, r3, r1, lsl #16
 8000512:	fb00 f107 	mul.w	r1, r0, r7
 8000516:	4299      	cmp	r1, r3
 8000518:	d908      	bls.n	800052c <__udivmoddi4+0x24c>
 800051a:	eb1c 0303 	adds.w	r3, ip, r3
 800051e:	f100 36ff 	add.w	r6, r0, #4294967295
 8000522:	d22c      	bcs.n	800057e <__udivmoddi4+0x29e>
 8000524:	4299      	cmp	r1, r3
 8000526:	d92a      	bls.n	800057e <__udivmoddi4+0x29e>
 8000528:	3802      	subs	r0, #2
 800052a:	4463      	add	r3, ip
 800052c:	1a5b      	subs	r3, r3, r1
 800052e:	b2a4      	uxth	r4, r4
 8000530:	fbb3 f1f8 	udiv	r1, r3, r8
 8000534:	fb08 3311 	mls	r3, r8, r1, r3
 8000538:	ea44 4403 	orr.w	r4, r4, r3, lsl #16
 800053c:	fb01 f307 	mul.w	r3, r1, r7
 8000540:	42a3      	cmp	r3, r4
 8000542:	d908      	bls.n	8000556 <__udivmoddi4+0x276>
 8000544:	eb1c 0404 	adds.w	r4, ip, r4
 8000548:	f101 36ff 	add.w	r6, r1, #4294967295
 800054c:	d213      	bcs.n	8000576 <__udivmoddi4+0x296>
 800054e:	42a3      	cmp	r3, r4
 8000550:	d911      	bls.n	8000576 <__udivmoddi4+0x296>
 8000552:	3902      	subs	r1, #2
 8000554:	4464      	add	r4, ip
 8000556:	1ae4      	subs	r4, r4, r3
 8000558:	ea41 4100 	orr.w	r1, r1, r0, lsl #16
 800055c:	e739      	b.n	80003d2 <__udivmoddi4+0xf2>
 800055e:	4604      	mov	r4, r0
 8000560:	e6f0      	b.n	8000344 <__udivmoddi4+0x64>
 8000562:	4608      	mov	r0, r1
 8000564:	e706      	b.n	8000374 <__udivmoddi4+0x94>
 8000566:	45c8      	cmp	r8, r9
 8000568:	d2ae      	bcs.n	80004c8 <__udivmoddi4+0x1e8>
 800056a:	ebb9 0e02 	subs.w	lr, r9, r2
 800056e:	eb63 0c07 	sbc.w	ip, r3, r7
 8000572:	3801      	subs	r0, #1
 8000574:	e7a8      	b.n	80004c8 <__udivmoddi4+0x1e8>
 8000576:	4631      	mov	r1, r6
 8000578:	e7ed      	b.n	8000556 <__udivmoddi4+0x276>
 800057a:	4603      	mov	r3, r0
 800057c:	e799      	b.n	80004b2 <__udivmoddi4+0x1d2>
 800057e:	4630      	mov	r0, r6
 8000580:	e7d4      	b.n	800052c <__udivmoddi4+0x24c>
 8000582:	46d6      	mov	lr, sl
 8000584:	e77f      	b.n	8000486 <__udivmoddi4+0x1a6>
 8000586:	4463      	add	r3, ip
 8000588:	3802      	subs	r0, #2
 800058a:	e74d      	b.n	8000428 <__udivmoddi4+0x148>
 800058c:	4606      	mov	r6, r0
 800058e:	4623      	mov	r3, r4
 8000590:	4608      	mov	r0, r1
 8000592:	e70f      	b.n	80003b4 <__udivmoddi4+0xd4>
 8000594:	3e02      	subs	r6, #2
 8000596:	4463      	add	r3, ip
 8000598:	e730      	b.n	80003fc <__udivmoddi4+0x11c>
 800059a:	bf00      	nop

0800059c <__aeabi_idiv0>:
 800059c:	4770      	bx	lr
 800059e:	bf00      	nop

080005a0 <infoCli>:
    }
}


void infoCli(uint8_t argc , const char **argv)
{
 80005a0:	e92d 41f0 	stmdb	sp!, {r4, r5, r6, r7, r8, lr}
 80005a4:	4604      	mov	r4, r0
 80005a6:	460e      	mov	r6, r1
  bool ret = false ;

  if(argc == 1 && cliIsStr(argv[0],"test"))
 80005a8:	2801      	cmp	r0, #1
 80005aa:	d008      	beq.n	80005be <infoCli+0x1e>
  bool ret = false ;
 80005ac:	2500      	movs	r5, #0
      cliPrintf("infoCli run\n"); // 인자까지 정상이면 정상작동
      ret = true ;
    }


  if(argc == 2  && cliIsStr (argv[0], "print"))
 80005ae:	2c02      	cmp	r4, #2
 80005b0:	d010      	beq.n	80005d4 <infoCli+0x34>
	}

      ret = true;
    }

  if(argc == 1 && cliIsStr(argv[0], "adc"))
 80005b2:	2c01      	cmp	r4, #1
 80005b4:	d025      	beq.n	8000602 <infoCli+0x62>





  if (ret == false)
 80005b6:	2d00      	cmp	r5, #0
 80005b8:	d03a      	beq.n	8000630 <infoCli+0x90>
    {
      cliPrintf("write -> info test\n");
      cliPrintf("write -> info print 0~10\n");
      cliPrintf("write -> info adc\n");
    }
}
 80005ba:	e8bd 81f0 	ldmia.w	sp!, {r4, r5, r6, r7, r8, pc}
  if(argc == 1 && cliIsStr(argv[0],"test"))
 80005be:	4921      	ldr	r1, [pc, #132]	@ (8000644 <infoCli+0xa4>)
 80005c0:	6830      	ldr	r0, [r6, #0]
 80005c2:	f000 f903 	bl	80007cc <cliIsStr>
 80005c6:	4605      	mov	r5, r0
 80005c8:	2800      	cmp	r0, #0
 80005ca:	d0f0      	beq.n	80005ae <infoCli+0xe>
      cliPrintf("infoCli run\n"); // 인자까지 정상이면 정상작동
 80005cc:	481e      	ldr	r0, [pc, #120]	@ (8000648 <infoCli+0xa8>)
 80005ce:	f000 f8cd 	bl	800076c <cliPrintf>
      ret = true ;
 80005d2:	e7ec      	b.n	80005ae <infoCli+0xe>
  if(argc == 2  && cliIsStr (argv[0], "print"))
 80005d4:	491d      	ldr	r1, [pc, #116]	@ (800064c <infoCli+0xac>)
 80005d6:	6830      	ldr	r0, [r6, #0]
 80005d8:	f000 f8f8 	bl	80007cc <cliIsStr>
 80005dc:	4680      	mov	r8, r0
 80005de:	2800      	cmp	r0, #0
 80005e0:	d0e7      	beq.n	80005b2 <infoCli+0x12>
      count = (uint8_t)cliGetData(argv[1]);
 80005e2:	6870      	ldr	r0, [r6, #4]
 80005e4:	f000 f8fa 	bl	80007dc <cliGetData>
 80005e8:	4607      	mov	r7, r0
      for(int i = 0 ; i < count ; i++)
 80005ea:	2500      	movs	r5, #0
 80005ec:	e004      	b.n	80005f8 <infoCli+0x58>
	  cliPrintf("print %d / %d\n " , i +1 , count);
 80005ee:	3501      	adds	r5, #1
 80005f0:	4629      	mov	r1, r5
 80005f2:	4817      	ldr	r0, [pc, #92]	@ (8000650 <infoCli+0xb0>)
 80005f4:	f000 f8ba 	bl	800076c <cliPrintf>
      for(int i = 0 ; i < count ; i++)
 80005f8:	b2fa      	uxtb	r2, r7
 80005fa:	4295      	cmp	r5, r2
 80005fc:	dbf7      	blt.n	80005ee <infoCli+0x4e>
      ret = true;
 80005fe:	4645      	mov	r5, r8
 8000600:	e7d7      	b.n	80005b2 <infoCli+0x12>
  if(argc == 1 && cliIsStr(argv[0], "adc"))
 8000602:	4914      	ldr	r1, [pc, #80]	@ (8000654 <infoCli+0xb4>)
 8000604:	6830      	ldr	r0, [r6, #0]
 8000606:	f000 f8e1 	bl	80007cc <cliIsStr>
 800060a:	4604      	mov	r4, r0
 800060c:	b950      	cbnz	r0, 8000624 <infoCli+0x84>
 800060e:	e7d2      	b.n	80005b6 <infoCli+0x16>
	      data = adcReadVoltage(_DEF_CH1);
 8000610:	2000      	movs	r0, #0
 8000612:	f000 f867 	bl	80006e4 <adcReadVoltage>
 8000616:	4601      	mov	r1, r0
	      cliPrintf("adc_voltage : %d\n",data );
 8000618:	480f      	ldr	r0, [pc, #60]	@ (8000658 <infoCli+0xb8>)
 800061a:	f000 f8a7 	bl	800076c <cliPrintf>
	      delay(100);
 800061e:	2064      	movs	r0, #100	@ 0x64
 8000620:	f000 f9f2 	bl	8000a08 <delay>
      while(cliKeepLoop())
 8000624:	f000 f8e0 	bl	80007e8 <cliKeepLoop>
 8000628:	2800      	cmp	r0, #0
 800062a:	d1f1      	bne.n	8000610 <infoCli+0x70>
      ret = true;
 800062c:	4625      	mov	r5, r4
 800062e:	e7c2      	b.n	80005b6 <infoCli+0x16>
      cliPrintf("write -> info test\n");
 8000630:	480a      	ldr	r0, [pc, #40]	@ (800065c <infoCli+0xbc>)
 8000632:	f000 f89b 	bl	800076c <cliPrintf>
      cliPrintf("write -> info print 0~10\n");
 8000636:	480a      	ldr	r0, [pc, #40]	@ (8000660 <infoCli+0xc0>)
 8000638:	f000 f898 	bl	800076c <cliPrintf>
      cliPrintf("write -> info adc\n");
 800063c:	4809      	ldr	r0, [pc, #36]	@ (8000664 <infoCli+0xc4>)
 800063e:	f000 f895 	bl	800076c <cliPrintf>
}
 8000642:	e7ba      	b.n	80005ba <infoCli+0x1a>
 8000644:	0800416c 	.word	0x0800416c
 8000648:	08004174 	.word	0x08004174
 800064c:	08004184 	.word	0x08004184
 8000650:	0800418c 	.word	0x0800418c
 8000654:	0800419c 	.word	0x0800419c
 8000658:	080041a0 	.word	0x080041a0
 800065c:	080041b4 	.word	0x080041b4
 8000660:	080041c8 	.word	0x080041c8
 8000664:	080041e4 	.word	0x080041e4

08000668 <apInit>:
{
 8000668:	b508      	push	{r3, lr}
  cliInit ();
 800066a:	f000 f865 	bl	8000738 <cliInit>
  adcInit ();
 800066e:	f000 f823 	bl	80006b8 <adcInit>
  uartInit ();
 8000672:	f000 f941 	bl	80008f8 <uartInit>
  cliAdd("info", infoCli);
 8000676:	4902      	ldr	r1, [pc, #8]	@ (8000680 <apInit+0x18>)
 8000678:	4802      	ldr	r0, [pc, #8]	@ (8000684 <apInit+0x1c>)
 800067a:	f000 f83d 	bl	80006f8 <cliAdd>
}
 800067e:	bd08      	pop	{r3, pc}
 8000680:	080005a1 	.word	0x080005a1
 8000684:	080041f8 	.word	0x080041f8

08000688 <apMain>:
{
 8000688:	b510      	push	{r4, lr}
  pre_time = millis ();
 800068a:	f000 f9c1 	bl	8000a10 <millis>
 800068e:	4604      	mov	r4, r0
 8000690:	e009      	b.n	80006a6 <apMain+0x1e>
	  pre_time = millis ();
 8000692:	f000 f9bd 	bl	8000a10 <millis>
 8000696:	4604      	mov	r4, r0
	  HAL_GPIO_TogglePin (LD3_GPIO_Port, LD3_Pin);
 8000698:	f44f 5100 	mov.w	r1, #8192	@ 0x2000
 800069c:	4805      	ldr	r0, [pc, #20]	@ (80006b4 <apMain+0x2c>)
 800069e:	f001 fe4b 	bl	8002338 <HAL_GPIO_TogglePin>
      cliMain();
 80006a2:	f000 f8ab 	bl	80007fc <cliMain>
      if (millis () - pre_time >= 500)
 80006a6:	f000 f9b3 	bl	8000a10 <millis>
 80006aa:	1b03      	subs	r3, r0, r4
 80006ac:	f5b3 7ffa 	cmp.w	r3, #500	@ 0x1f4
 80006b0:	d2ef      	bcs.n	8000692 <apMain+0xa>
 80006b2:	e7f6      	b.n	80006a2 <apMain+0x1a>
 80006b4:	40021800 	.word	0x40021800

080006b8 <adcInit>:
uint16_t adc_data[3];



bool adcInit(void)
{
 80006b8:	b508      	push	{r3, lr}
	HAL_ADC_Start_DMA(&hadc1, (uint32_t *)adc_data, 3);		//핸들러, 배열, 채널 수
 80006ba:	2203      	movs	r2, #3
 80006bc:	4902      	ldr	r1, [pc, #8]	@ (80006c8 <adcInit+0x10>)
 80006be:	4803      	ldr	r0, [pc, #12]	@ (80006cc <adcInit+0x14>)
 80006c0:	f001 f9ac 	bl	8001a1c <HAL_ADC_Start_DMA>
	return true;
}
 80006c4:	2001      	movs	r0, #1
 80006c6:	bd08      	pop	{r3, pc}
 80006c8:	20000078 	.word	0x20000078
 80006cc:	2000056c 	.word	0x2000056c

080006d0 <adcRead>:
uint16_t adcRead(uint8_t ch)
{
	uint16_t cali_value = 0;
	uint16_t ret = 0;
	switch(ch)
 80006d0:	b918      	cbnz	r0, 80006da <adcRead+0xa>
	{
		case _DEF_CH1 :
			if(adc_data[ch] > cali_value)
 80006d2:	4a03      	ldr	r2, [pc, #12]	@ (80006e0 <adcRead+0x10>)
 80006d4:	f832 0010 	ldrh.w	r0, [r2, r0, lsl #1]
 80006d8:	4770      	bx	lr
	uint16_t ret = 0;
 80006da:	2000      	movs	r0, #0
			}

		break;
	}
	return ret;
}
 80006dc:	4770      	bx	lr
 80006de:	bf00      	nop
 80006e0:	20000078 	.word	0x20000078

080006e4 <adcReadVoltage>:


uint32_t adcReadVoltage(uint8_t ch)
{
 80006e4:	b508      	push	{r3, lr}
	uint32_t ret ;
	uint32_t adc_data;
	adc_data = adcRead(ch);
 80006e6:	f7ff fff3 	bl	80006d0 <adcRead>
	ret = (330 * adc_data ) / 4096 ;	// float 안쓰고 330 (3.3v) * adc_data / 2의 12승(해상도)
 80006ea:	f44f 73a5 	mov.w	r3, #330	@ 0x14a
 80006ee:	fb03 f000 	mul.w	r0, r3, r0
	return ret ;
}
 80006f2:	0b00      	lsrs	r0, r0, #12
 80006f4:	bd08      	pop	{r3, pc}
	...

080006f8 <cliAdd>:
  return true;
}

bool cliAdd (const char *cmd_str,
	     void (*cmd_func) (uint8_t argc, const char **argv))
{
 80006f8:	b5f8      	push	{r3, r4, r5, r6, r7, lr}
  if (cli_cmd_count >= CLI_CMD_LIST_MAX)
 80006fa:	4b0d      	ldr	r3, [pc, #52]	@ (8000730 <cliAdd+0x38>)
 80006fc:	781c      	ldrb	r4, [r3, #0]
 80006fe:	2c07      	cmp	r4, #7
 8000700:	d901      	bls.n	8000706 <cliAdd+0xe>
    return false;
 8000702:	2000      	movs	r0, #0
  strncpy (cli_cmd_func[cli_cmd_count].cmd_str, cmd_str, 8);
  cli_cmd_func[cli_cmd_count].cmd_func = cmd_func; // 함수포인터 세팅
  cli_cmd_count++;

  return true;
}
 8000704:	bdf8      	pop	{r3, r4, r5, r6, r7, pc}
 8000706:	460e      	mov	r6, r1
  strncpy (cli_cmd_func[cli_cmd_count].cmd_str, cmd_str, 8);
 8000708:	0067      	lsls	r7, r4, #1
 800070a:	eb04 0344 	add.w	r3, r4, r4, lsl #1
 800070e:	4d09      	ldr	r5, [pc, #36]	@ (8000734 <cliAdd+0x3c>)
 8000710:	2208      	movs	r2, #8
 8000712:	4601      	mov	r1, r0
 8000714:	eb05 0083 	add.w	r0, r5, r3, lsl #2
 8000718:	f003 f866 	bl	80037e8 <strncpy>
  cli_cmd_func[cli_cmd_count].cmd_func = cmd_func; // 함수포인터 세팅
 800071c:	4427      	add	r7, r4
 800071e:	eb05 0587 	add.w	r5, r5, r7, lsl #2
 8000722:	60ae      	str	r6, [r5, #8]
  cli_cmd_count++;
 8000724:	3401      	adds	r4, #1
 8000726:	4b02      	ldr	r3, [pc, #8]	@ (8000730 <cliAdd+0x38>)
 8000728:	701c      	strb	r4, [r3, #0]
  return true;
 800072a:	2001      	movs	r0, #1
 800072c:	e7ea      	b.n	8000704 <cliAdd+0xc>
 800072e:	bf00      	nop
 8000730:	200000e0 	.word	0x200000e0
 8000734:	20000080 	.word	0x20000080

08000738 <cliInit>:
{
 8000738:	b508      	push	{r3, lr}
  for (int i = 0; i < CLI_CMD_LIST_MAX; i++)
 800073a:	2300      	movs	r3, #0
 800073c:	e007      	b.n	800074e <cliInit+0x16>
      cli_cmd_func[i].cmd_func = NULL;
 800073e:	eb03 0243 	add.w	r2, r3, r3, lsl #1
 8000742:	0091      	lsls	r1, r2, #2
 8000744:	4a06      	ldr	r2, [pc, #24]	@ (8000760 <cliInit+0x28>)
 8000746:	440a      	add	r2, r1
 8000748:	2100      	movs	r1, #0
 800074a:	6091      	str	r1, [r2, #8]
  for (int i = 0; i < CLI_CMD_LIST_MAX; i++)
 800074c:	3301      	adds	r3, #1
 800074e:	2b07      	cmp	r3, #7
 8000750:	ddf5      	ble.n	800073e <cliInit+0x6>
  cliAdd("help" , cliHelp);
 8000752:	4904      	ldr	r1, [pc, #16]	@ (8000764 <cliInit+0x2c>)
 8000754:	4804      	ldr	r0, [pc, #16]	@ (8000768 <cliInit+0x30>)
 8000756:	f7ff ffcf 	bl	80006f8 <cliAdd>
}
 800075a:	2001      	movs	r0, #1
 800075c:	bd08      	pop	{r3, pc}
 800075e:	bf00      	nop
 8000760:	20000080 	.word	0x20000080
 8000764:	0800078d 	.word	0x0800078d
 8000768:	08004200 	.word	0x08004200

0800076c <cliPrintf>:
}



void cliPrintf (const char *fmt, ...)
{
 800076c:	b40f      	push	{r0, r1, r2, r3}
 800076e:	b500      	push	{lr}
 8000770:	b083      	sub	sp, #12
 8000772:	aa04      	add	r2, sp, #16
 8000774:	f852 1b04 	ldr.w	r1, [r2], #4
  va_list arg;

  va_start(arg, fmt);
 8000778:	9201      	str	r2, [sp, #4]
  uartVPrintf (cli_ch, fmt, arg);
 800077a:	2000      	movs	r0, #0
 800077c:	f000 f930 	bl	80009e0 <uartVPrintf>
  va_end(arg);
}
 8000780:	b003      	add	sp, #12
 8000782:	f85d eb04 	ldr.w	lr, [sp], #4
 8000786:	b004      	add	sp, #16
 8000788:	4770      	bx	lr
	...

0800078c <cliHelp>:
{
 800078c:	b510      	push	{r4, lr}
  cliPrintf("----------------------\n");
 800078e:	480b      	ldr	r0, [pc, #44]	@ (80007bc <cliHelp+0x30>)
 8000790:	f7ff ffec 	bl	800076c <cliPrintf>
  for(int i= 0; i<cli_cmd_count; i++)
 8000794:	2400      	movs	r4, #0
 8000796:	e008      	b.n	80007aa <cliHelp+0x1e>
      cliPrintf("%s\n", cli_cmd_func[i].cmd_str);
 8000798:	eb04 0244 	add.w	r2, r4, r4, lsl #1
 800079c:	0093      	lsls	r3, r2, #2
 800079e:	4908      	ldr	r1, [pc, #32]	@ (80007c0 <cliHelp+0x34>)
 80007a0:	4419      	add	r1, r3
 80007a2:	4808      	ldr	r0, [pc, #32]	@ (80007c4 <cliHelp+0x38>)
 80007a4:	f7ff ffe2 	bl	800076c <cliPrintf>
  for(int i= 0; i<cli_cmd_count; i++)
 80007a8:	3401      	adds	r4, #1
 80007aa:	4b07      	ldr	r3, [pc, #28]	@ (80007c8 <cliHelp+0x3c>)
 80007ac:	781b      	ldrb	r3, [r3, #0]
 80007ae:	42a3      	cmp	r3, r4
 80007b0:	dcf2      	bgt.n	8000798 <cliHelp+0xc>
  cliPrintf("----------------------\n");
 80007b2:	4802      	ldr	r0, [pc, #8]	@ (80007bc <cliHelp+0x30>)
 80007b4:	f7ff ffda 	bl	800076c <cliPrintf>
}
 80007b8:	bd10      	pop	{r4, pc}
 80007ba:	bf00      	nop
 80007bc:	08004208 	.word	0x08004208
 80007c0:	20000080 	.word	0x20000080
 80007c4:	08004220 	.word	0x08004220
 80007c8:	200000e0 	.word	0x200000e0

080007cc <cliIsStr>:

bool cliIsStr (const char *p_arg, const char *p_str)
{
 80007cc:	b508      	push	{r3, lr}
  if (strcmp (p_arg, p_str) == 0)
 80007ce:	f7ff fd0f 	bl	80001f0 <strcmp>
 80007d2:	b908      	cbnz	r0, 80007d8 <cliIsStr+0xc>
    return true;
 80007d4:	2001      	movs	r0, #1
  else
    return false;
}
 80007d6:	bd08      	pop	{r3, pc}
    return false;
 80007d8:	2000      	movs	r0, #0
 80007da:	e7fc      	b.n	80007d6 <cliIsStr+0xa>

080007dc <cliGetData>:

int32_t cliGetData (const char *p_arg)
{
 80007dc:	b508      	push	{r3, lr}
  int32_t ret;
  ret = (int32_t) strtoul (p_arg, (char**) NULL, 0);
 80007de:	2200      	movs	r2, #0
 80007e0:	4611      	mov	r1, r2
 80007e2:	f002 ffb5 	bl	8003750 <strtoul>
  return ret;
}
 80007e6:	bd08      	pop	{r3, pc}

080007e8 <cliKeepLoop>:


bool cliKeepLoop(void)
{
 80007e8:	b508      	push	{r3, lr}
  if(uartAvailable(cli_ch) ==0)
 80007ea:	2000      	movs	r0, #0
 80007ec:	f000 f8a4 	bl	8000938 <uartAvailable>
 80007f0:	b908      	cbnz	r0, 80007f6 <cliKeepLoop+0xe>
    return true;
 80007f2:	2001      	movs	r0, #1
  else
    return false;
}
 80007f4:	bd08      	pop	{r3, pc}
    return false;
 80007f6:	2000      	movs	r0, #0
 80007f8:	e7fc      	b.n	80007f4 <cliKeepLoop+0xc>
	...

080007fc <cliMain>:




bool cliMain (void)
{
 80007fc:	b530      	push	{r4, r5, lr}
 80007fe:	b083      	sub	sp, #12
  bool ret = false;
  if (uartAvailable (cli_ch) > 0)
 8000800:	2000      	movs	r0, #0
 8000802:	f000 f899 	bl	8000938 <uartAvailable>
 8000806:	b918      	cbnz	r0, 8000810 <cliMain+0x14>
  bool ret = false;
 8000808:	2400      	movs	r4, #0
	}

    }

  return ret;
}
 800080a:	4620      	mov	r0, r4
 800080c:	b003      	add	sp, #12
 800080e:	bd30      	pop	{r4, r5, pc}
      rx_data = uartRead (cli_ch);
 8000810:	2000      	movs	r0, #0
 8000812:	f000 f8af 	bl	8000974 <uartRead>
 8000816:	f88d 0003 	strb.w	r0, [sp, #3]
      if (rx_data == '\r')
 800081a:	280d      	cmp	r0, #13
 800081c:	d005      	beq.n	800082a <cliMain+0x2e>
      else if (cli_buf_index < (128 - 1)) // 버퍼 경계처리 128은 버퍼크기 , -1은 null값 고려
 800081e:	4b2c      	ldr	r3, [pc, #176]	@ (80008d0 <cliMain+0xd4>)
 8000820:	881b      	ldrh	r3, [r3, #0]
 8000822:	2b7e      	cmp	r3, #126	@ 0x7e
 8000824:	d946      	bls.n	80008b4 <cliMain+0xb8>
  bool ret = false;
 8000826:	2400      	movs	r4, #0
 8000828:	e7ef      	b.n	800080a <cliMain+0xe>
	  cli_buf[cli_buf_index] = 0; // CLI 라인마지막 'r'다음 null값을 주기
 800082a:	4b29      	ldr	r3, [pc, #164]	@ (80008d0 <cliMain+0xd4>)
 800082c:	881a      	ldrh	r2, [r3, #0]
 800082e:	4d29      	ldr	r5, [pc, #164]	@ (80008d4 <cliMain+0xd8>)
 8000830:	2400      	movs	r4, #0
 8000832:	54ac      	strb	r4, [r5, r2]
	  cli_buf_index = 0;
 8000834:	801c      	strh	r4, [r3, #0]
	  uartPrintf (cli_ch, "\r\n"); // 터미널쪽에 줄바꿈
 8000836:	4928      	ldr	r1, [pc, #160]	@ (80008d8 <cliMain+0xdc>)
 8000838:	4620      	mov	r0, r4
 800083a:	f000 f8b7 	bl	80009ac <uartPrintf>
	  char *str_ptr = cli_buf;
 800083e:	9501      	str	r5, [sp, #4]
	  cli_argc = 0;
 8000840:	4b26      	ldr	r3, [pc, #152]	@ (80008dc <cliMain+0xe0>)
 8000842:	801c      	strh	r4, [r3, #0]
	  while ((tok = strtok_r (str_ptr, " ", &str_ptr)) != NULL)
 8000844:	e006      	b.n	8000854 <cliMain+0x58>
	      cli_argv[cli_argc] = tok;
 8000846:	4a25      	ldr	r2, [pc, #148]	@ (80008dc <cliMain+0xe0>)
 8000848:	8813      	ldrh	r3, [r2, #0]
 800084a:	4825      	ldr	r0, [pc, #148]	@ (80008e0 <cliMain+0xe4>)
 800084c:	f840 1023 	str.w	r1, [r0, r3, lsl #2]
	      cli_argc++;
 8000850:	3301      	adds	r3, #1
 8000852:	8013      	strh	r3, [r2, #0]
	  while ((tok = strtok_r (str_ptr, " ", &str_ptr)) != NULL)
 8000854:	aa01      	add	r2, sp, #4
 8000856:	4923      	ldr	r1, [pc, #140]	@ (80008e4 <cliMain+0xe8>)
 8000858:	9801      	ldr	r0, [sp, #4]
 800085a:	f003 f800 	bl	800385e <strtok_r>
 800085e:	4601      	mov	r1, r0
 8000860:	2800      	cmp	r0, #0
 8000862:	d1f0      	bne.n	8000846 <cliMain+0x4a>
	  for (int i = 0; i < cli_cmd_count; i++)
 8000864:	2400      	movs	r4, #0
 8000866:	e000      	b.n	800086a <cliMain+0x6e>
 8000868:	3401      	adds	r4, #1
 800086a:	4b1f      	ldr	r3, [pc, #124]	@ (80008e8 <cliMain+0xec>)
 800086c:	781b      	ldrb	r3, [r3, #0]
 800086e:	42a3      	cmp	r3, r4
 8000870:	dd1a      	ble.n	80008a8 <cliMain+0xac>
	      if (strcmp (cli_argv[0], cli_cmd_func[i].cmd_str) == 0)
 8000872:	eb04 0144 	add.w	r1, r4, r4, lsl #1
 8000876:	4b1d      	ldr	r3, [pc, #116]	@ (80008ec <cliMain+0xf0>)
 8000878:	eb03 0181 	add.w	r1, r3, r1, lsl #2
 800087c:	4b18      	ldr	r3, [pc, #96]	@ (80008e0 <cliMain+0xe4>)
 800087e:	6818      	ldr	r0, [r3, #0]
 8000880:	f7ff fcb6 	bl	80001f0 <strcmp>
 8000884:	2800      	cmp	r0, #0
 8000886:	d1ef      	bne.n	8000868 <cliMain+0x6c>
		  if (cli_cmd_func[i].cmd_func != NULL)
 8000888:	eb04 0244 	add.w	r2, r4, r4, lsl #1
 800088c:	4b17      	ldr	r3, [pc, #92]	@ (80008ec <cliMain+0xf0>)
 800088e:	eb03 0382 	add.w	r3, r3, r2, lsl #2
 8000892:	689b      	ldr	r3, [r3, #8]
 8000894:	2b00      	cmp	r3, #0
 8000896:	d0e7      	beq.n	8000868 <cliMain+0x6c>
		      cli_cmd_func[i].cmd_func (cli_argc - 1,
 8000898:	4a10      	ldr	r2, [pc, #64]	@ (80008dc <cliMain+0xe0>)
 800089a:	8810      	ldrh	r0, [r2, #0]
 800089c:	3801      	subs	r0, #1
 800089e:	4914      	ldr	r1, [pc, #80]	@ (80008f0 <cliMain+0xf4>)
 80008a0:	b2c0      	uxtb	r0, r0
 80008a2:	4798      	blx	r3
		      ret = true;
 80008a4:	2401      	movs	r4, #1
		      break;
 80008a6:	e000      	b.n	80008aa <cliMain+0xae>
  bool ret = false;
 80008a8:	2400      	movs	r4, #0
	  uartPrintf (cli_ch, "cli# "); // 프롬프트라고 알리는 출력
 80008aa:	4912      	ldr	r1, [pc, #72]	@ (80008f4 <cliMain+0xf8>)
 80008ac:	2000      	movs	r0, #0
 80008ae:	f000 f87d 	bl	80009ac <uartPrintf>
 80008b2:	e7aa      	b.n	800080a <cliMain+0xe>
	  cli_buf[cli_buf_index] = rx_data;
 80008b4:	4a07      	ldr	r2, [pc, #28]	@ (80008d4 <cliMain+0xd8>)
 80008b6:	54d0      	strb	r0, [r2, r3]
	  cli_buf_index++;
 80008b8:	3301      	adds	r3, #1
 80008ba:	4a05      	ldr	r2, [pc, #20]	@ (80008d0 <cliMain+0xd4>)
 80008bc:	8013      	strh	r3, [r2, #0]
	  uartWrite (cli_ch, &rx_data, 1); // 에코
 80008be:	2201      	movs	r2, #1
 80008c0:	f10d 0103 	add.w	r1, sp, #3
 80008c4:	2000      	movs	r0, #0
 80008c6:	f000 f825 	bl	8000914 <uartWrite>
  bool ret = false;
 80008ca:	2400      	movs	r4, #0
 80008cc:	e79d      	b.n	800080a <cliMain+0xe>
 80008ce:	bf00      	nop
 80008d0:	20000106 	.word	0x20000106
 80008d4:	20000108 	.word	0x20000108
 80008d8:	08004224 	.word	0x08004224
 80008dc:	20000104 	.word	0x20000104
 80008e0:	200000e4 	.word	0x200000e4
 80008e4:	0800422c 	.word	0x0800422c
 80008e8:	200000e0 	.word	0x200000e0
 80008ec:	20000080 	.word	0x20000080
 80008f0:	200000e8 	.word	0x200000e8
 80008f4:	08004228 	.word	0x08004228

080008f8 <uartInit>:
static uint16_t q_in = 0;
static uint16_t q_out = 0;
static uint8_t q_buf[UART_Q_BUF_MAX];

bool uartInit (void) //코어에서 실제로 초기화를 함.
{
 80008f8:	b508      	push	{r3, lr}
  HAL_UART_Receive_DMA (&huart1, &q_buf[0], UART_Q_BUF_MAX);
 80008fa:	f44f 7280 	mov.w	r2, #256	@ 0x100
 80008fe:	4903      	ldr	r1, [pc, #12]	@ (800090c <uartInit+0x14>)
 8000900:	4803      	ldr	r0, [pc, #12]	@ (8000910 <uartInit+0x18>)
 8000902:	f002 fe0d 	bl	8003520 <HAL_UART_Receive_DMA>
  return true;
}
 8000906:	2001      	movs	r0, #1
 8000908:	bd08      	pop	{r3, pc}
 800090a:	bf00      	nop
 800090c:	20000188 	.word	0x20000188
 8000910:	20000320 	.word	0x20000320

08000914 <uartWrite>:
uint32_t uartWrite (uint8_t ch, uint8_t *p_data, uint32_t length)
{
  uint32_t ret = 0;
  HAL_StatusTypeDef hal_ret;

  switch (ch)
 8000914:	b108      	cbz	r0, 800091a <uartWrite+0x6>
  uint32_t ret = 0;
 8000916:	2000      	movs	r0, #0
	  ret = length;	// HAL_OK일 경우가 아니면 ret은 0으로 초기화된그대로,.
	}
      break;
    }
  return ret;
}
 8000918:	4770      	bx	lr
{
 800091a:	b510      	push	{r4, lr}
 800091c:	4614      	mov	r4, r2
      hal_ret = HAL_UART_Transmit (&huart1, p_data, length, 100); //timeout으로 100ms 주기
 800091e:	2364      	movs	r3, #100	@ 0x64
 8000920:	b292      	uxth	r2, r2
 8000922:	4804      	ldr	r0, [pc, #16]	@ (8000934 <uartWrite+0x20>)
 8000924:	f002 fcb7 	bl	8003296 <HAL_UART_Transmit>
      if (hal_ret == HAL_OK)
 8000928:	b108      	cbz	r0, 800092e <uartWrite+0x1a>
  uint32_t ret = 0;
 800092a:	2000      	movs	r0, #0
}
 800092c:	bd10      	pop	{r4, pc}
	  ret = length;	// HAL_OK일 경우가 아니면 ret은 0으로 초기화된그대로,.
 800092e:	4620      	mov	r0, r4
  return ret;
 8000930:	e7fc      	b.n	800092c <uartWrite+0x18>
 8000932:	bf00      	nop
 8000934:	20000320 	.word	0x20000320

08000938 <uartAvailable>:

uint32_t uartAvailable (uint8_t ch)
{
  uint32_t ret = 0;

  switch (ch)
 8000938:	b998      	cbnz	r0, 8000962 <uartAvailable+0x2a>
    {
    case _DEF_CH1:
      q_in = (UART_Q_BUF_MAX - huart1.hdmarx->Instance->NDTR) % UART_Q_BUF_MAX;
 800093a:	4b0b      	ldr	r3, [pc, #44]	@ (8000968 <uartAvailable+0x30>)
 800093c:	6bdb      	ldr	r3, [r3, #60]	@ 0x3c
 800093e:	681b      	ldr	r3, [r3, #0]
 8000940:	6858      	ldr	r0, [r3, #4]
 8000942:	b280      	uxth	r0, r0
 8000944:	4240      	negs	r0, r0
 8000946:	b2c0      	uxtb	r0, r0
 8000948:	4b08      	ldr	r3, [pc, #32]	@ (800096c <uartAvailable+0x34>)
 800094a:	8018      	strh	r0, [r3, #0]
      ret = (UART_Q_BUF_MAX + q_in - q_out) % UART_Q_BUF_MAX; // 큐에 남아있는 버퍼 갯수를 리턴
 800094c:	f500 7080 	add.w	r0, r0, #256	@ 0x100
 8000950:	4b07      	ldr	r3, [pc, #28]	@ (8000970 <uartAvailable+0x38>)
 8000952:	881b      	ldrh	r3, [r3, #0]
 8000954:	1ac0      	subs	r0, r0, r3
 8000956:	4243      	negs	r3, r0
 8000958:	b2c0      	uxtb	r0, r0
 800095a:	b2db      	uxtb	r3, r3
 800095c:	bf58      	it	pl
 800095e:	4258      	negpl	r0, r3
      break;
 8000960:	4770      	bx	lr
  uint32_t ret = 0;
 8000962:	2000      	movs	r0, #0
    }
  return ret;
}
 8000964:	4770      	bx	lr
 8000966:	bf00      	nop
 8000968:	20000320 	.word	0x20000320
 800096c:	2000028a 	.word	0x2000028a
 8000970:	20000288 	.word	0x20000288

08000974 <uartRead>:

uint8_t uartRead (uint8_t ch)	//버퍼를 출력하기
{
  uint8_t ret = 0;

  switch (ch)
 8000974:	b980      	cbnz	r0, 8000998 <uartRead+0x24>
    {
    case _DEF_CH1:
      if (q_out != q_in)
 8000976:	4b0a      	ldr	r3, [pc, #40]	@ (80009a0 <uartRead+0x2c>)
 8000978:	881b      	ldrh	r3, [r3, #0]
 800097a:	490a      	ldr	r1, [pc, #40]	@ (80009a4 <uartRead+0x30>)
 800097c:	8809      	ldrh	r1, [r1, #0]
 800097e:	428b      	cmp	r3, r1
 8000980:	d00c      	beq.n	800099c <uartRead+0x28>
	{
	  ret = q_buf[q_out];
 8000982:	4a09      	ldr	r2, [pc, #36]	@ (80009a8 <uartRead+0x34>)
 8000984:	5cd0      	ldrb	r0, [r2, r3]
	  q_out = (q_out + 1) % UART_Q_BUF_MAX;
 8000986:	3301      	adds	r3, #1
 8000988:	425a      	negs	r2, r3
 800098a:	b2db      	uxtb	r3, r3
 800098c:	b2d2      	uxtb	r2, r2
 800098e:	bf58      	it	pl
 8000990:	4253      	negpl	r3, r2
 8000992:	4a03      	ldr	r2, [pc, #12]	@ (80009a0 <uartRead+0x2c>)
 8000994:	8013      	strh	r3, [r2, #0]
 8000996:	4770      	bx	lr
  uint8_t ret = 0;
 8000998:	2000      	movs	r0, #0
 800099a:	4770      	bx	lr
	}
      break;
    }

  return ret;
}
 800099c:	4770      	bx	lr
 800099e:	bf00      	nop
 80009a0:	20000288 	.word	0x20000288
 80009a4:	2000028a 	.word	0x2000028a
 80009a8:	20000188 	.word	0x20000188

080009ac <uartPrintf>:

uint32_t uartPrintf (uint8_t ch, const char *fmt, ...) //가변인자를 사용한 형식화 출력함수, 프로그램만들때 매우 용이
{
 80009ac:	b40e      	push	{r1, r2, r3}
 80009ae:	b510      	push	{r4, lr}
 80009b0:	b0c3      	sub	sp, #268	@ 0x10c
 80009b2:	4604      	mov	r4, r0
 80009b4:	ab45      	add	r3, sp, #276	@ 0x114
 80009b6:	f853 2b04 	ldr.w	r2, [r3], #4
  uint32_t ret = 0;

  va_list arg;
  char print_buf[256];

  va_start(arg, fmt);
 80009ba:	9341      	str	r3, [sp, #260]	@ 0x104
  int len;
  len = vsnprintf (print_buf, 256, fmt, arg);
 80009bc:	f44f 7180 	mov.w	r1, #256	@ 0x100
 80009c0:	a801      	add	r0, sp, #4
 80009c2:	f002 fefb 	bl	80037bc <vsniprintf>
  va_end(arg);

  if (len > 0)
 80009c6:	1e02      	subs	r2, r0, #0
 80009c8:	dc05      	bgt.n	80009d6 <uartPrintf+0x2a>
  uint32_t ret = 0;
 80009ca:	2000      	movs	r0, #0
    {
      ret = uartWrite (ch, (uint8_t*) print_buf, len);
    }

  return ret;
}
 80009cc:	b043      	add	sp, #268	@ 0x10c
 80009ce:	e8bd 4010 	ldmia.w	sp!, {r4, lr}
 80009d2:	b003      	add	sp, #12
 80009d4:	4770      	bx	lr
      ret = uartWrite (ch, (uint8_t*) print_buf, len);
 80009d6:	a901      	add	r1, sp, #4
 80009d8:	4620      	mov	r0, r4
 80009da:	f7ff ff9b 	bl	8000914 <uartWrite>
 80009de:	e7f5      	b.n	80009cc <uartPrintf+0x20>

080009e0 <uartVPrintf>:

uint32_t uartVPrintf (uint8_t ch, const char *fmt, va_list arg) //cli에 사용할 printf 가변인자 포인터를 윗단에서관리함.
{
 80009e0:	b510      	push	{r4, lr}
 80009e2:	b0c0      	sub	sp, #256	@ 0x100
 80009e4:	4604      	mov	r4, r0
 80009e6:	4613      	mov	r3, r2

  uint32_t ret = 0;
  char print_buf[256];
  int len;
  len = vsnprintf (print_buf, 256, fmt, arg);
 80009e8:	460a      	mov	r2, r1
 80009ea:	f44f 7180 	mov.w	r1, #256	@ 0x100
 80009ee:	4668      	mov	r0, sp
 80009f0:	f002 fee4 	bl	80037bc <vsniprintf>

  if (len > 0)
 80009f4:	1e02      	subs	r2, r0, #0
 80009f6:	dc02      	bgt.n	80009fe <uartVPrintf+0x1e>
  uint32_t ret = 0;
 80009f8:	2000      	movs	r0, #0
    {
      ret = uartWrite (ch, (uint8_t*) print_buf, len);
    }

  return ret;
}
 80009fa:	b040      	add	sp, #256	@ 0x100
 80009fc:	bd10      	pop	{r4, pc}
      ret = uartWrite (ch, (uint8_t*) print_buf, len);
 80009fe:	4669      	mov	r1, sp
 8000a00:	4620      	mov	r0, r4
 8000a02:	f7ff ff87 	bl	8000914 <uartWrite>
 8000a06:	e7f8      	b.n	80009fa <uartVPrintf+0x1a>

08000a08 <delay>:

#include "utils.h"


void delay(uint32_t time_ms) // Hal 추상화용
{
 8000a08:	b508      	push	{r3, lr}
	HAL_Delay(time_ms);
 8000a0a:	f000 ff2d 	bl	8001868 <HAL_Delay>
}
 8000a0e:	bd08      	pop	{r3, pc}

08000a10 <millis>:



uint32_t millis(void)
{
 8000a10:	b508      	push	{r3, lr}
	return HAL_GetTick();
 8000a12:	f000 ff23 	bl	800185c <HAL_GetTick>
}
 8000a16:	bd08      	pop	{r3, pc}

08000a18 <MX_DMA_Init>:

/**
  * Enable DMA controller clock
  */
static void MX_DMA_Init(void)
{
 8000a18:	b082      	sub	sp, #8

  /* DMA controller clock enable */
  __HAL_RCC_DMA2_CLK_ENABLE();
 8000a1a:	2300      	movs	r3, #0
 8000a1c:	9301      	str	r3, [sp, #4]
 8000a1e:	4b06      	ldr	r3, [pc, #24]	@ (8000a38 <MX_DMA_Init+0x20>)
 8000a20:	6b1a      	ldr	r2, [r3, #48]	@ 0x30
 8000a22:	f442 0280 	orr.w	r2, r2, #4194304	@ 0x400000
 8000a26:	631a      	str	r2, [r3, #48]	@ 0x30
 8000a28:	6b1b      	ldr	r3, [r3, #48]	@ 0x30
 8000a2a:	f403 0380 	and.w	r3, r3, #4194304	@ 0x400000
 8000a2e:	9301      	str	r3, [sp, #4]
 8000a30:	9b01      	ldr	r3, [sp, #4]

}
 8000a32:	b002      	add	sp, #8
 8000a34:	4770      	bx	lr
 8000a36:	bf00      	nop
 8000a38:	40023800 	.word	0x40023800

08000a3c <MX_GPIO_Init>:
  * @brief GPIO Initialization Function
  * @param None
  * @retval None
  */
static void MX_GPIO_Init(void)
{
 8000a3c:	e92d 47f0 	stmdb	sp!, {r4, r5, r6, r7, r8, r9, sl, lr}
 8000a40:	b08e      	sub	sp, #56	@ 0x38
  GPIO_InitTypeDef GPIO_InitStruct = {0};
 8000a42:	2400      	movs	r4, #0
 8000a44:	9409      	str	r4, [sp, #36]	@ 0x24
 8000a46:	940a      	str	r4, [sp, #40]	@ 0x28
 8000a48:	940b      	str	r4, [sp, #44]	@ 0x2c
 8000a4a:	940c      	str	r4, [sp, #48]	@ 0x30
 8000a4c:	940d      	str	r4, [sp, #52]	@ 0x34
/* USER CODE BEGIN MX_GPIO_Init_1 */
/* USER CODE END MX_GPIO_Init_1 */

  /* GPIO Ports Clock Enable */
  __HAL_RCC_GPIOC_CLK_ENABLE();
 8000a4e:	9401      	str	r4, [sp, #4]
 8000a50:	4b69      	ldr	r3, [pc, #420]	@ (8000bf8 <MX_GPIO_Init+0x1bc>)
 8000a52:	6b1a      	ldr	r2, [r3, #48]	@ 0x30
 8000a54:	f042 0204 	orr.w	r2, r2, #4
 8000a58:	631a      	str	r2, [r3, #48]	@ 0x30
 8000a5a:	6b1a      	ldr	r2, [r3, #48]	@ 0x30
 8000a5c:	f002 0204 	and.w	r2, r2, #4
 8000a60:	9201      	str	r2, [sp, #4]
 8000a62:	9a01      	ldr	r2, [sp, #4]
  __HAL_RCC_GPIOF_CLK_ENABLE();
 8000a64:	9402      	str	r4, [sp, #8]
 8000a66:	6b1a      	ldr	r2, [r3, #48]	@ 0x30
 8000a68:	f042 0220 	orr.w	r2, r2, #32
 8000a6c:	631a      	str	r2, [r3, #48]	@ 0x30
 8000a6e:	6b1a      	ldr	r2, [r3, #48]	@ 0x30
 8000a70:	f002 0220 	and.w	r2, r2, #32
 8000a74:	9202      	str	r2, [sp, #8]
 8000a76:	9a02      	ldr	r2, [sp, #8]
  __HAL_RCC_GPIOH_CLK_ENABLE();
 8000a78:	9403      	str	r4, [sp, #12]
 8000a7a:	6b1a      	ldr	r2, [r3, #48]	@ 0x30
 8000a7c:	f042 0280 	orr.w	r2, r2, #128	@ 0x80
 8000a80:	631a      	str	r2, [r3, #48]	@ 0x30
 8000a82:	6b1a      	ldr	r2, [r3, #48]	@ 0x30
 8000a84:	f002 0280 	and.w	r2, r2, #128	@ 0x80
 8000a88:	9203      	str	r2, [sp, #12]
 8000a8a:	9a03      	ldr	r2, [sp, #12]
  __HAL_RCC_GPIOA_CLK_ENABLE();
 8000a8c:	9404      	str	r4, [sp, #16]
 8000a8e:	6b1a      	ldr	r2, [r3, #48]	@ 0x30
 8000a90:	f042 0201 	orr.w	r2, r2, #1
 8000a94:	631a      	str	r2, [r3, #48]	@ 0x30
 8000a96:	6b1a      	ldr	r2, [r3, #48]	@ 0x30
 8000a98:	f002 0201 	and.w	r2, r2, #1
 8000a9c:	9204      	str	r2, [sp, #16]
 8000a9e:	9a04      	ldr	r2, [sp, #16]
  __HAL_RCC_GPIOB_CLK_ENABLE();
 8000aa0:	9405      	str	r4, [sp, #20]
 8000aa2:	6b1a      	ldr	r2, [r3, #48]	@ 0x30
 8000aa4:	f042 0202 	orr.w	r2, r2, #2
 8000aa8:	631a      	str	r2, [r3, #48]	@ 0x30
 8000aaa:	6b1a      	ldr	r2, [r3, #48]	@ 0x30
 8000aac:	f002 0202 	and.w	r2, r2, #2
 8000ab0:	9205      	str	r2, [sp, #20]
 8000ab2:	9a05      	ldr	r2, [sp, #20]
  __HAL_RCC_GPIOG_CLK_ENABLE();
 8000ab4:	9406      	str	r4, [sp, #24]
 8000ab6:	6b1a      	ldr	r2, [r3, #48]	@ 0x30
 8000ab8:	f042 0240 	orr.w	r2, r2, #64	@ 0x40
 8000abc:	631a      	str	r2, [r3, #48]	@ 0x30
 8000abe:	6b1a      	ldr	r2, [r3, #48]	@ 0x30
 8000ac0:	f002 0240 	and.w	r2, r2, #64	@ 0x40
 8000ac4:	9206      	str	r2, [sp, #24]
 8000ac6:	9a06      	ldr	r2, [sp, #24]
  __HAL_RCC_GPIOE_CLK_ENABLE();
 8000ac8:	9407      	str	r4, [sp, #28]
 8000aca:	6b1a      	ldr	r2, [r3, #48]	@ 0x30
 8000acc:	f042 0210 	orr.w	r2, r2, #16
 8000ad0:	631a      	str	r2, [r3, #48]	@ 0x30
 8000ad2:	6b1a      	ldr	r2, [r3, #48]	@ 0x30
 8000ad4:	f002 0210 	and.w	r2, r2, #16
 8000ad8:	9207      	str	r2, [sp, #28]
 8000ada:	9a07      	ldr	r2, [sp, #28]
  __HAL_RCC_GPIOD_CLK_ENABLE();
 8000adc:	9408      	str	r4, [sp, #32]
 8000ade:	6b1a      	ldr	r2, [r3, #48]	@ 0x30
 8000ae0:	f042 0208 	orr.w	r2, r2, #8
 8000ae4:	631a      	str	r2, [r3, #48]	@ 0x30
 8000ae6:	6b1b      	ldr	r3, [r3, #48]	@ 0x30
 8000ae8:	f003 0308 	and.w	r3, r3, #8
 8000aec:	9308      	str	r3, [sp, #32]
 8000aee:	9b08      	ldr	r3, [sp, #32]

  /*Configure GPIO pin Output Level */
  HAL_GPIO_WritePin(GPIOC, NCS_MEMS_SPI_Pin|CSX_Pin|OTG_FS_PSO_Pin, GPIO_PIN_RESET);
 8000af0:	4f42      	ldr	r7, [pc, #264]	@ (8000bfc <MX_GPIO_Init+0x1c0>)
 8000af2:	4622      	mov	r2, r4
 8000af4:	2116      	movs	r1, #22
 8000af6:	4638      	mov	r0, r7
 8000af8:	f001 fc18 	bl	800232c <HAL_GPIO_WritePin>

  /*Configure GPIO pin Output Level */
  HAL_GPIO_WritePin(ACP_RST_GPIO_Port, ACP_RST_Pin, GPIO_PIN_RESET);
 8000afc:	f8df 8104 	ldr.w	r8, [pc, #260]	@ 8000c04 <MX_GPIO_Init+0x1c8>
 8000b00:	4622      	mov	r2, r4
 8000b02:	2180      	movs	r1, #128	@ 0x80
 8000b04:	4640      	mov	r0, r8
 8000b06:	f001 fc11 	bl	800232c <HAL_GPIO_WritePin>

  /*Configure GPIO pin Output Level */
  HAL_GPIO_WritePin(GPIOD, RDX_Pin|WRX_DCX_Pin, GPIO_PIN_RESET);
 8000b0a:	4e3d      	ldr	r6, [pc, #244]	@ (8000c00 <MX_GPIO_Init+0x1c4>)
 8000b0c:	4622      	mov	r2, r4
 8000b0e:	f44f 5140 	mov.w	r1, #12288	@ 0x3000
 8000b12:	4630      	mov	r0, r6
 8000b14:	f001 fc0a 	bl	800232c <HAL_GPIO_WritePin>

  /*Configure GPIO pin Output Level */
  HAL_GPIO_WritePin(GPIOG, LD3_Pin|LD4_Pin, GPIO_PIN_RESET);
 8000b18:	f8df 90ec 	ldr.w	r9, [pc, #236]	@ 8000c08 <MX_GPIO_Init+0x1cc>
 8000b1c:	4622      	mov	r2, r4
 8000b1e:	f44f 41c0 	mov.w	r1, #24576	@ 0x6000
 8000b22:	4648      	mov	r0, r9
 8000b24:	f001 fc02 	bl	800232c <HAL_GPIO_WritePin>

  /*Configure GPIO pins : NCS_MEMS_SPI_Pin CSX_Pin OTG_FS_PSO_Pin */
  GPIO_InitStruct.Pin = NCS_MEMS_SPI_Pin|CSX_Pin|OTG_FS_PSO_Pin;
 8000b28:	2316      	movs	r3, #22
 8000b2a:	9309      	str	r3, [sp, #36]	@ 0x24
  GPIO_InitStruct.Mode = GPIO_MODE_OUTPUT_PP;
 8000b2c:	2501      	movs	r5, #1
 8000b2e:	950a      	str	r5, [sp, #40]	@ 0x28
  GPIO_InitStruct.Pull = GPIO_NOPULL;
 8000b30:	940b      	str	r4, [sp, #44]	@ 0x2c
  GPIO_InitStruct.Speed = GPIO_SPEED_FREQ_LOW;
 8000b32:	940c      	str	r4, [sp, #48]	@ 0x30
  HAL_GPIO_Init(GPIOC, &GPIO_InitStruct);
 8000b34:	a909      	add	r1, sp, #36	@ 0x24
 8000b36:	4638      	mov	r0, r7
 8000b38:	f001 faf4 	bl	8002124 <HAL_GPIO_Init>

  /*Configure GPIO pins : B1_Pin MEMS_INT1_Pin MEMS_INT2_Pin TP_INT1_Pin */
  GPIO_InitStruct.Pin = B1_Pin|MEMS_INT1_Pin|MEMS_INT2_Pin|TP_INT1_Pin;
 8000b3c:	f248 0307 	movw	r3, #32775	@ 0x8007
 8000b40:	9309      	str	r3, [sp, #36]	@ 0x24
  GPIO_InitStruct.Mode = GPIO_MODE_EVT_RISING;
 8000b42:	f44f 1a90 	mov.w	sl, #1179648	@ 0x120000
 8000b46:	f8cd a028 	str.w	sl, [sp, #40]	@ 0x28
  GPIO_InitStruct.Pull = GPIO_NOPULL;
 8000b4a:	940b      	str	r4, [sp, #44]	@ 0x2c
  HAL_GPIO_Init(GPIOA, &GPIO_InitStruct);
 8000b4c:	a909      	add	r1, sp, #36	@ 0x24
 8000b4e:	4640      	mov	r0, r8
 8000b50:	f001 fae8 	bl	8002124 <HAL_GPIO_Init>

  /*Configure GPIO pin : ACP_RST_Pin */
  GPIO_InitStruct.Pin = ACP_RST_Pin;
 8000b54:	2380      	movs	r3, #128	@ 0x80
 8000b56:	9309      	str	r3, [sp, #36]	@ 0x24
  GPIO_InitStruct.Mode = GPIO_MODE_OUTPUT_PP;
 8000b58:	950a      	str	r5, [sp, #40]	@ 0x28
  GPIO_InitStruct.Pull = GPIO_NOPULL;
 8000b5a:	940b      	str	r4, [sp, #44]	@ 0x2c
  GPIO_InitStruct.Speed = GPIO_SPEED_FREQ_LOW;
 8000b5c:	940c      	str	r4, [sp, #48]	@ 0x30
  HAL_GPIO_Init(ACP_RST_GPIO_Port, &GPIO_InitStruct);
 8000b5e:	a909      	add	r1, sp, #36	@ 0x24
 8000b60:	4640      	mov	r0, r8
 8000b62:	f001 fadf 	bl	8002124 <HAL_GPIO_Init>

  /*Configure GPIO pin : OTG_FS_OC_Pin */
  GPIO_InitStruct.Pin = OTG_FS_OC_Pin;
 8000b66:	2320      	movs	r3, #32
 8000b68:	9309      	str	r3, [sp, #36]	@ 0x24
  GPIO_InitStruct.Mode = GPIO_MODE_EVT_RISING;
 8000b6a:	f8cd a028 	str.w	sl, [sp, #40]	@ 0x28
  GPIO_InitStruct.Pull = GPIO_NOPULL;
 8000b6e:	940b      	str	r4, [sp, #44]	@ 0x2c
  HAL_GPIO_Init(OTG_FS_OC_GPIO_Port, &GPIO_InitStruct);
 8000b70:	a909      	add	r1, sp, #36	@ 0x24
 8000b72:	4638      	mov	r0, r7
 8000b74:	f001 fad6 	bl	8002124 <HAL_GPIO_Init>

  /*Configure GPIO pin : BOOT1_Pin */
  GPIO_InitStruct.Pin = BOOT1_Pin;
 8000b78:	2304      	movs	r3, #4
 8000b7a:	9309      	str	r3, [sp, #36]	@ 0x24
  GPIO_InitStruct.Mode = GPIO_MODE_INPUT;
 8000b7c:	940a      	str	r4, [sp, #40]	@ 0x28
  GPIO_InitStruct.Pull = GPIO_NOPULL;
 8000b7e:	940b      	str	r4, [sp, #44]	@ 0x2c
  HAL_GPIO_Init(BOOT1_GPIO_Port, &GPIO_InitStruct);
 8000b80:	f5a7 6780 	sub.w	r7, r7, #1024	@ 0x400
 8000b84:	a909      	add	r1, sp, #36	@ 0x24
 8000b86:	4638      	mov	r0, r7
 8000b88:	f001 facc 	bl	8002124 <HAL_GPIO_Init>

  /*Configure GPIO pins : OTG_HS_ID_Pin OTG_HS_DM_Pin OTG_HS_DP_Pin */
  GPIO_InitStruct.Pin = OTG_HS_ID_Pin|OTG_HS_DM_Pin|OTG_HS_DP_Pin;
 8000b8c:	f44f 4350 	mov.w	r3, #53248	@ 0xd000
 8000b90:	9309      	str	r3, [sp, #36]	@ 0x24
  GPIO_InitStruct.Mode = GPIO_MODE_AF_PP;
 8000b92:	2302      	movs	r3, #2
 8000b94:	930a      	str	r3, [sp, #40]	@ 0x28
  GPIO_InitStruct.Pull = GPIO_NOPULL;
 8000b96:	940b      	str	r4, [sp, #44]	@ 0x2c
  GPIO_InitStruct.Speed = GPIO_SPEED_FREQ_LOW;
 8000b98:	940c      	str	r4, [sp, #48]	@ 0x30
  GPIO_InitStruct.Alternate = GPIO_AF12_OTG_HS_FS;
 8000b9a:	230c      	movs	r3, #12
 8000b9c:	930d      	str	r3, [sp, #52]	@ 0x34
  HAL_GPIO_Init(GPIOB, &GPIO_InitStruct);
 8000b9e:	a909      	add	r1, sp, #36	@ 0x24
 8000ba0:	4638      	mov	r0, r7
 8000ba2:	f001 fabf 	bl	8002124 <HAL_GPIO_Init>

  /*Configure GPIO pin : VBUS_HS_Pin */
  GPIO_InitStruct.Pin = VBUS_HS_Pin;
 8000ba6:	f44f 5300 	mov.w	r3, #8192	@ 0x2000
 8000baa:	9309      	str	r3, [sp, #36]	@ 0x24
  GPIO_InitStruct.Mode = GPIO_MODE_INPUT;
 8000bac:	940a      	str	r4, [sp, #40]	@ 0x28
  GPIO_InitStruct.Pull = GPIO_NOPULL;
 8000bae:	940b      	str	r4, [sp, #44]	@ 0x2c
  HAL_GPIO_Init(VBUS_HS_GPIO_Port, &GPIO_InitStruct);
 8000bb0:	a909      	add	r1, sp, #36	@ 0x24
 8000bb2:	4638      	mov	r0, r7
 8000bb4:	f001 fab6 	bl	8002124 <HAL_GPIO_Init>

  /*Configure GPIO pin : TE_Pin */
  GPIO_InitStruct.Pin = TE_Pin;
 8000bb8:	f44f 6300 	mov.w	r3, #2048	@ 0x800
 8000bbc:	9309      	str	r3, [sp, #36]	@ 0x24
  GPIO_InitStruct.Mode = GPIO_MODE_INPUT;
 8000bbe:	940a      	str	r4, [sp, #40]	@ 0x28
  GPIO_InitStruct.Pull = GPIO_NOPULL;
 8000bc0:	940b      	str	r4, [sp, #44]	@ 0x2c
  HAL_GPIO_Init(TE_GPIO_Port, &GPIO_InitStruct);
 8000bc2:	a909      	add	r1, sp, #36	@ 0x24
 8000bc4:	4630      	mov	r0, r6
 8000bc6:	f001 faad 	bl	8002124 <HAL_GPIO_Init>

  /*Configure GPIO pins : RDX_Pin WRX_DCX_Pin */
  GPIO_InitStruct.Pin = RDX_Pin|WRX_DCX_Pin;
 8000bca:	f44f 5340 	mov.w	r3, #12288	@ 0x3000
 8000bce:	9309      	str	r3, [sp, #36]	@ 0x24
  GPIO_InitStruct.Mode = GPIO_MODE_OUTPUT_PP;
 8000bd0:	950a      	str	r5, [sp, #40]	@ 0x28
  GPIO_InitStruct.Pull = GPIO_NOPULL;
 8000bd2:	940b      	str	r4, [sp, #44]	@ 0x2c
  GPIO_InitStruct.Speed = GPIO_SPEED_FREQ_LOW;
 8000bd4:	940c      	str	r4, [sp, #48]	@ 0x30
  HAL_GPIO_Init(GPIOD, &GPIO_InitStruct);
 8000bd6:	a909      	add	r1, sp, #36	@ 0x24
 8000bd8:	4630      	mov	r0, r6
 8000bda:	f001 faa3 	bl	8002124 <HAL_GPIO_Init>

  /*Configure GPIO pins : LD3_Pin LD4_Pin */
  GPIO_InitStruct.Pin = LD3_Pin|LD4_Pin;
 8000bde:	f44f 43c0 	mov.w	r3, #24576	@ 0x6000
 8000be2:	9309      	str	r3, [sp, #36]	@ 0x24
  GPIO_InitStruct.Mode = GPIO_MODE_OUTPUT_PP;
 8000be4:	950a      	str	r5, [sp, #40]	@ 0x28
  GPIO_InitStruct.Pull = GPIO_NOPULL;
 8000be6:	940b      	str	r4, [sp, #44]	@ 0x2c
  GPIO_InitStruct.Speed = GPIO_SPEED_FREQ_LOW;
 8000be8:	940c      	str	r4, [sp, #48]	@ 0x30
  HAL_GPIO_Init(GPIOG, &GPIO_InitStruct);
 8000bea:	a909      	add	r1, sp, #36	@ 0x24
 8000bec:	4648      	mov	r0, r9
 8000bee:	f001 fa99 	bl	8002124 <HAL_GPIO_Init>

/* USER CODE BEGIN MX_GPIO_Init_2 */
/* USER CODE END MX_GPIO_Init_2 */
}
 8000bf2:	b00e      	add	sp, #56	@ 0x38
 8000bf4:	e8bd 87f0 	ldmia.w	sp!, {r4, r5, r6, r7, r8, r9, sl, pc}
 8000bf8:	40023800 	.word	0x40023800
 8000bfc:	40020800 	.word	0x40020800
 8000c00:	40020c00 	.word	0x40020c00
 8000c04:	40020000 	.word	0x40020000
 8000c08:	40021800 	.word	0x40021800

08000c0c <PeriphCommonClock_Config>:
  *         @arg @ref LL_RCC_PLLSAIDIVR_DIV_16
  * @retval None
  */
__STATIC_INLINE void LL_RCC_PLLSAI_ConfigDomain_LTDC(uint32_t Source, uint32_t PLLM, uint32_t PLLN, uint32_t PLLR, uint32_t PLLDIVR)
{
  MODIFY_REG(RCC->PLLCFGR, RCC_PLLCFGR_PLLSRC | RCC_PLLCFGR_PLLM, Source | PLLM);
 8000c0c:	4a12      	ldr	r2, [pc, #72]	@ (8000c58 <PeriphCommonClock_Config+0x4c>)
 8000c0e:	6853      	ldr	r3, [r2, #4]
 8000c10:	f423 0380 	bic.w	r3, r3, #4194304	@ 0x400000
 8000c14:	f023 033f 	bic.w	r3, r3, #63	@ 0x3f
 8000c18:	f443 0380 	orr.w	r3, r3, #4194304	@ 0x400000
 8000c1c:	f043 0304 	orr.w	r3, r3, #4
 8000c20:	6053      	str	r3, [r2, #4]
  MODIFY_REG(RCC->PLLSAICFGR, RCC_PLLSAICFGR_PLLSAIN | RCC_PLLSAICFGR_PLLSAIR, PLLN << RCC_PLLSAICFGR_PLLSAIN_Pos | PLLR);
 8000c22:	f8d2 1088 	ldr.w	r1, [r2, #136]	@ 0x88
 8000c26:	4b0d      	ldr	r3, [pc, #52]	@ (8000c5c <PeriphCommonClock_Config+0x50>)
 8000c28:	400b      	ands	r3, r1
 8000c2a:	f043 5300 	orr.w	r3, r3, #536870912	@ 0x20000000
 8000c2e:	f443 6348 	orr.w	r3, r3, #3200	@ 0xc80
 8000c32:	f8c2 3088 	str.w	r3, [r2, #136]	@ 0x88
  MODIFY_REG(RCC->DCKCFGR, RCC_DCKCFGR_PLLSAIDIVR, PLLDIVR);
 8000c36:	f8d2 308c 	ldr.w	r3, [r2, #140]	@ 0x8c
 8000c3a:	f423 3340 	bic.w	r3, r3, #196608	@ 0x30000
 8000c3e:	f8c2 308c 	str.w	r3, [r2, #140]	@ 0x8c
  SET_BIT(RCC->CR, RCC_CR_PLLSAION);
 8000c42:	6813      	ldr	r3, [r2, #0]
 8000c44:	f043 5380 	orr.w	r3, r3, #268435456	@ 0x10000000
 8000c48:	6013      	str	r3, [r2, #0]
  return (READ_BIT(RCC->CR, RCC_CR_PLLSAIRDY) == (RCC_CR_PLLSAIRDY));
 8000c4a:	4b03      	ldr	r3, [pc, #12]	@ (8000c58 <PeriphCommonClock_Config+0x4c>)
 8000c4c:	681b      	ldr	r3, [r3, #0]
  while(LL_RCC_PLLSAI_IsReady() != 1)
 8000c4e:	f013 5f00 	tst.w	r3, #536870912	@ 0x20000000
 8000c52:	d0fa      	beq.n	8000c4a <PeriphCommonClock_Config+0x3e>
}
 8000c54:	4770      	bx	lr
 8000c56:	bf00      	nop
 8000c58:	40023800 	.word	0x40023800
 8000c5c:	8fff803f 	.word	0x8fff803f

08000c60 <HAL_TIM_PeriodElapsedCallback>:
  * a global variable "uwTick" used as application time base.
  * @param  htim : TIM handle
  * @retval None
  */
void HAL_TIM_PeriodElapsedCallback(TIM_HandleTypeDef *htim)
{
 8000c60:	b508      	push	{r3, lr}
  /* USER CODE BEGIN Callback 0 */

  /* USER CODE END Callback 0 */
  if (htim->Instance == TIM6) {
 8000c62:	6802      	ldr	r2, [r0, #0]
 8000c64:	4b03      	ldr	r3, [pc, #12]	@ (8000c74 <HAL_TIM_PeriodElapsedCallback+0x14>)
 8000c66:	429a      	cmp	r2, r3
 8000c68:	d000      	beq.n	8000c6c <HAL_TIM_PeriodElapsedCallback+0xc>
    HAL_IncTick();
  }
  /* USER CODE BEGIN Callback 1 */

  /* USER CODE END Callback 1 */
}
 8000c6a:	bd08      	pop	{r3, pc}
    HAL_IncTick();
 8000c6c:	f000 fdea 	bl	8001844 <HAL_IncTick>
}
 8000c70:	e7fb      	b.n	8000c6a <HAL_TIM_PeriodElapsedCallback+0xa>
 8000c72:	bf00      	nop
 8000c74:	40001000 	.word	0x40001000

08000c78 <Error_Handler>:
  \details Disables IRQ interrupts by setting special-purpose register PRIMASK.
           Can only be executed in Privileged modes.
 */
__STATIC_FORCEINLINE void __disable_irq(void)
{
  __ASM volatile ("cpsid i" : : : "memory");
 8000c78:	b672      	cpsid	i
void Error_Handler(void)
{
  /* USER CODE BEGIN Error_Handler_Debug */
  /* User can add his own implementation to report the HAL error return state */
  __disable_irq();
  while (1)
 8000c7a:	e7fe      	b.n	8000c7a <Error_Handler+0x2>

08000c7c <MX_CRC_Init>:
{
 8000c7c:	b508      	push	{r3, lr}
  hcrc.Instance = CRC;
 8000c7e:	4804      	ldr	r0, [pc, #16]	@ (8000c90 <MX_CRC_Init+0x14>)
 8000c80:	4b04      	ldr	r3, [pc, #16]	@ (8000c94 <MX_CRC_Init+0x18>)
 8000c82:	6003      	str	r3, [r0, #0]
  if (HAL_CRC_Init(&hcrc) != HAL_OK)
 8000c84:	f001 f922 	bl	8001ecc <HAL_CRC_Init>
 8000c88:	b900      	cbnz	r0, 8000c8c <MX_CRC_Init+0x10>
}
 8000c8a:	bd08      	pop	{r3, pc}
    Error_Handler();
 8000c8c:	f7ff fff4 	bl	8000c78 <Error_Handler>
 8000c90:	20000504 	.word	0x20000504
 8000c94:	40023000 	.word	0x40023000

08000c98 <MX_FMC_Init>:
{
 8000c98:	b500      	push	{lr}
 8000c9a:	b089      	sub	sp, #36	@ 0x24
  FMC_SDRAM_TimingTypeDef SdramTiming = {0};
 8000c9c:	2300      	movs	r3, #0
 8000c9e:	9301      	str	r3, [sp, #4]
 8000ca0:	9302      	str	r3, [sp, #8]
 8000ca2:	9303      	str	r3, [sp, #12]
 8000ca4:	9304      	str	r3, [sp, #16]
 8000ca6:	9305      	str	r3, [sp, #20]
 8000ca8:	9306      	str	r3, [sp, #24]
 8000caa:	9307      	str	r3, [sp, #28]
  hsdram1.Instance = FMC_SDRAM_DEVICE;
 8000cac:	4814      	ldr	r0, [pc, #80]	@ (8000d00 <MX_FMC_Init+0x68>)
 8000cae:	4a15      	ldr	r2, [pc, #84]	@ (8000d04 <MX_FMC_Init+0x6c>)
 8000cb0:	6002      	str	r2, [r0, #0]
  hsdram1.Init.SDBank = FMC_SDRAM_BANK2;
 8000cb2:	2201      	movs	r2, #1
 8000cb4:	6042      	str	r2, [r0, #4]
  hsdram1.Init.ColumnBitsNumber = FMC_SDRAM_COLUMN_BITS_NUM_8;
 8000cb6:	6083      	str	r3, [r0, #8]
  hsdram1.Init.RowBitsNumber = FMC_SDRAM_ROW_BITS_NUM_12;
 8000cb8:	2104      	movs	r1, #4
 8000cba:	60c1      	str	r1, [r0, #12]
  hsdram1.Init.MemoryDataWidth = FMC_SDRAM_MEM_BUS_WIDTH_16;
 8000cbc:	2210      	movs	r2, #16
 8000cbe:	6102      	str	r2, [r0, #16]
  hsdram1.Init.InternalBankNumber = FMC_SDRAM_INTERN_BANKS_NUM_4;
 8000cc0:	2240      	movs	r2, #64	@ 0x40
 8000cc2:	6142      	str	r2, [r0, #20]
  hsdram1.Init.CASLatency = FMC_SDRAM_CAS_LATENCY_3;
 8000cc4:	f44f 72c0 	mov.w	r2, #384	@ 0x180
 8000cc8:	6182      	str	r2, [r0, #24]
  hsdram1.Init.WriteProtection = FMC_SDRAM_WRITE_PROTECTION_DISABLE;
 8000cca:	61c3      	str	r3, [r0, #28]
  hsdram1.Init.SDClockPeriod = FMC_SDRAM_CLOCK_PERIOD_2;
 8000ccc:	f44f 6200 	mov.w	r2, #2048	@ 0x800
 8000cd0:	6202      	str	r2, [r0, #32]
  hsdram1.Init.ReadBurst = FMC_SDRAM_RBURST_DISABLE;
 8000cd2:	6243      	str	r3, [r0, #36]	@ 0x24
  hsdram1.Init.ReadPipeDelay = FMC_SDRAM_RPIPE_DELAY_1;
 8000cd4:	f44f 5300 	mov.w	r3, #8192	@ 0x2000
 8000cd8:	6283      	str	r3, [r0, #40]	@ 0x28
  SdramTiming.LoadToActiveDelay = 2;
 8000cda:	2302      	movs	r3, #2
 8000cdc:	9301      	str	r3, [sp, #4]
  SdramTiming.ExitSelfRefreshDelay = 7;
 8000cde:	2207      	movs	r2, #7
 8000ce0:	9202      	str	r2, [sp, #8]
  SdramTiming.SelfRefreshTime = 4;
 8000ce2:	9103      	str	r1, [sp, #12]
  SdramTiming.RowCycleDelay = 7;
 8000ce4:	9204      	str	r2, [sp, #16]
  SdramTiming.WriteRecoveryTime = 3;
 8000ce6:	2203      	movs	r2, #3
 8000ce8:	9205      	str	r2, [sp, #20]
  SdramTiming.RPDelay = 2;
 8000cea:	9306      	str	r3, [sp, #24]
  SdramTiming.RCDDelay = 2;
 8000cec:	9307      	str	r3, [sp, #28]
  if (HAL_SDRAM_Init(&hsdram1, &SdramTiming) != HAL_OK)
 8000cee:	4469      	add	r1, sp
 8000cf0:	f001 fe86 	bl	8002a00 <HAL_SDRAM_Init>
 8000cf4:	b910      	cbnz	r0, 8000cfc <MX_FMC_Init+0x64>
}
 8000cf6:	b009      	add	sp, #36	@ 0x24
 8000cf8:	f85d fb04 	ldr.w	pc, [sp], #4
    Error_Handler( );
 8000cfc:	f7ff ffbc 	bl	8000c78 <Error_Handler>
 8000d00:	2000028c 	.word	0x2000028c
 8000d04:	a0000140 	.word	0xa0000140

08000d08 <MX_I2C3_Init>:
{
 8000d08:	b508      	push	{r3, lr}
  hi2c3.Instance = I2C3;
 8000d0a:	4811      	ldr	r0, [pc, #68]	@ (8000d50 <MX_I2C3_Init+0x48>)
 8000d0c:	4b11      	ldr	r3, [pc, #68]	@ (8000d54 <MX_I2C3_Init+0x4c>)
 8000d0e:	6003      	str	r3, [r0, #0]
  hi2c3.Init.ClockSpeed = 100000;
 8000d10:	4b11      	ldr	r3, [pc, #68]	@ (8000d58 <MX_I2C3_Init+0x50>)
 8000d12:	6043      	str	r3, [r0, #4]
  hi2c3.Init.DutyCycle = I2C_DUTYCYCLE_2;
 8000d14:	2300      	movs	r3, #0
 8000d16:	6083      	str	r3, [r0, #8]
  hi2c3.Init.OwnAddress1 = 0;
 8000d18:	60c3      	str	r3, [r0, #12]
  hi2c3.Init.AddressingMode = I2C_ADDRESSINGMODE_7BIT;
 8000d1a:	f44f 4280 	mov.w	r2, #16384	@ 0x4000
 8000d1e:	6102      	str	r2, [r0, #16]
  hi2c3.Init.DualAddressMode = I2C_DUALADDRESS_DISABLE;
 8000d20:	6143      	str	r3, [r0, #20]
  hi2c3.Init.OwnAddress2 = 0;
 8000d22:	6183      	str	r3, [r0, #24]
  hi2c3.Init.GeneralCallMode = I2C_GENERALCALL_DISABLE;
 8000d24:	61c3      	str	r3, [r0, #28]
  hi2c3.Init.NoStretchMode = I2C_NOSTRETCH_DISABLE;
 8000d26:	6203      	str	r3, [r0, #32]
  if (HAL_I2C_Init(&hi2c3) != HAL_OK)
 8000d28:	f001 fb10 	bl	800234c <HAL_I2C_Init>
 8000d2c:	b950      	cbnz	r0, 8000d44 <MX_I2C3_Init+0x3c>
  if (HAL_I2CEx_ConfigAnalogFilter(&hi2c3, I2C_ANALOGFILTER_ENABLE) != HAL_OK)
 8000d2e:	2100      	movs	r1, #0
 8000d30:	4807      	ldr	r0, [pc, #28]	@ (8000d50 <MX_I2C3_Init+0x48>)
 8000d32:	f001 fbe9 	bl	8002508 <HAL_I2CEx_ConfigAnalogFilter>
 8000d36:	b938      	cbnz	r0, 8000d48 <MX_I2C3_Init+0x40>
  if (HAL_I2CEx_ConfigDigitalFilter(&hi2c3, 0) != HAL_OK)
 8000d38:	2100      	movs	r1, #0
 8000d3a:	4805      	ldr	r0, [pc, #20]	@ (8000d50 <MX_I2C3_Init+0x48>)
 8000d3c:	f001 fc06 	bl	800254c <HAL_I2CEx_ConfigDigitalFilter>
 8000d40:	b920      	cbnz	r0, 8000d4c <MX_I2C3_Init+0x44>
}
 8000d42:	bd08      	pop	{r3, pc}
    Error_Handler();
 8000d44:	f7ff ff98 	bl	8000c78 <Error_Handler>
    Error_Handler();
 8000d48:	f7ff ff96 	bl	8000c78 <Error_Handler>
    Error_Handler();
 8000d4c:	f7ff ff94 	bl	8000c78 <Error_Handler>
 8000d50:	200004b0 	.word	0x200004b0
 8000d54:	40005c00 	.word	0x40005c00
 8000d58:	000186a0 	.word	0x000186a0

08000d5c <MX_SPI5_Init>:
{
 8000d5c:	b508      	push	{r3, lr}
  hspi5.Instance = SPI5;
 8000d5e:	480d      	ldr	r0, [pc, #52]	@ (8000d94 <MX_SPI5_Init+0x38>)
 8000d60:	4b0d      	ldr	r3, [pc, #52]	@ (8000d98 <MX_SPI5_Init+0x3c>)
 8000d62:	6003      	str	r3, [r0, #0]
  hspi5.Init.Mode = SPI_MODE_MASTER;
 8000d64:	f44f 7382 	mov.w	r3, #260	@ 0x104
 8000d68:	6043      	str	r3, [r0, #4]
  hspi5.Init.Direction = SPI_DIRECTION_2LINES;
 8000d6a:	2300      	movs	r3, #0
 8000d6c:	6083      	str	r3, [r0, #8]
  hspi5.Init.DataSize = SPI_DATASIZE_8BIT;
 8000d6e:	60c3      	str	r3, [r0, #12]
  hspi5.Init.CLKPolarity = SPI_POLARITY_LOW;
 8000d70:	6103      	str	r3, [r0, #16]
  hspi5.Init.CLKPhase = SPI_PHASE_1EDGE;
 8000d72:	6143      	str	r3, [r0, #20]
  hspi5.Init.NSS = SPI_NSS_SOFT;
 8000d74:	f44f 7200 	mov.w	r2, #512	@ 0x200
 8000d78:	6182      	str	r2, [r0, #24]
  hspi5.Init.BaudRatePrescaler = SPI_BAUDRATEPRESCALER_16;
 8000d7a:	2218      	movs	r2, #24
 8000d7c:	61c2      	str	r2, [r0, #28]
  hspi5.Init.FirstBit = SPI_FIRSTBIT_MSB;
 8000d7e:	6203      	str	r3, [r0, #32]
  hspi5.Init.TIMode = SPI_TIMODE_DISABLE;
 8000d80:	6243      	str	r3, [r0, #36]	@ 0x24
  hspi5.Init.CRCCalculation = SPI_CRCCALCULATION_DISABLE;
 8000d82:	6283      	str	r3, [r0, #40]	@ 0x28
  hspi5.Init.CRCPolynomial = 10;
 8000d84:	230a      	movs	r3, #10
 8000d86:	62c3      	str	r3, [r0, #44]	@ 0x2c
  if (HAL_SPI_Init(&hspi5) != HAL_OK)
 8000d88:	f001 fe5a 	bl	8002a40 <HAL_SPI_Init>
 8000d8c:	b900      	cbnz	r0, 8000d90 <MX_SPI5_Init+0x34>
}
 8000d8e:	bd08      	pop	{r3, pc}
    Error_Handler();
 8000d90:	f7ff ff72 	bl	8000c78 <Error_Handler>
 8000d94:	200003b0 	.word	0x200003b0
 8000d98:	40015000 	.word	0x40015000

08000d9c <MX_TIM1_Init>:
{
 8000d9c:	b500      	push	{lr}
 8000d9e:	b087      	sub	sp, #28
  TIM_ClockConfigTypeDef sClockSourceConfig = {0};
 8000da0:	2300      	movs	r3, #0
 8000da2:	9302      	str	r3, [sp, #8]
 8000da4:	9303      	str	r3, [sp, #12]
 8000da6:	9304      	str	r3, [sp, #16]
 8000da8:	9305      	str	r3, [sp, #20]
  TIM_MasterConfigTypeDef sMasterConfig = {0};
 8000daa:	9300      	str	r3, [sp, #0]
 8000dac:	9301      	str	r3, [sp, #4]
  htim1.Instance = TIM1;
 8000dae:	4813      	ldr	r0, [pc, #76]	@ (8000dfc <MX_TIM1_Init+0x60>)
 8000db0:	4a13      	ldr	r2, [pc, #76]	@ (8000e00 <MX_TIM1_Init+0x64>)
 8000db2:	6002      	str	r2, [r0, #0]
  htim1.Init.Prescaler = 0;
 8000db4:	6043      	str	r3, [r0, #4]
  htim1.Init.CounterMode = TIM_COUNTERMODE_UP;
 8000db6:	6083      	str	r3, [r0, #8]
  htim1.Init.Period = 65535;
 8000db8:	f64f 72ff 	movw	r2, #65535	@ 0xffff
 8000dbc:	60c2      	str	r2, [r0, #12]
  htim1.Init.ClockDivision = TIM_CLOCKDIVISION_DIV1;
 8000dbe:	6103      	str	r3, [r0, #16]
  htim1.Init.RepetitionCounter = 0;
 8000dc0:	6143      	str	r3, [r0, #20]
  htim1.Init.AutoReloadPreload = TIM_AUTORELOAD_PRELOAD_DISABLE;
 8000dc2:	6183      	str	r3, [r0, #24]
  if (HAL_TIM_Base_Init(&htim1) != HAL_OK)
 8000dc4:	f002 f82e 	bl	8002e24 <HAL_TIM_Base_Init>
 8000dc8:	b990      	cbnz	r0, 8000df0 <MX_TIM1_Init+0x54>
  sClockSourceConfig.ClockSource = TIM_CLOCKSOURCE_INTERNAL;
 8000dca:	f44f 5380 	mov.w	r3, #4096	@ 0x1000
 8000dce:	9302      	str	r3, [sp, #8]
  if (HAL_TIM_ConfigClockSource(&htim1, &sClockSourceConfig) != HAL_OK)
 8000dd0:	a902      	add	r1, sp, #8
 8000dd2:	480a      	ldr	r0, [pc, #40]	@ (8000dfc <MX_TIM1_Init+0x60>)
 8000dd4:	f002 f85f 	bl	8002e96 <HAL_TIM_ConfigClockSource>
 8000dd8:	b960      	cbnz	r0, 8000df4 <MX_TIM1_Init+0x58>
  sMasterConfig.MasterOutputTrigger = TIM_TRGO_RESET;
 8000dda:	2300      	movs	r3, #0
 8000ddc:	9300      	str	r3, [sp, #0]
  sMasterConfig.MasterSlaveMode = TIM_MASTERSLAVEMODE_DISABLE;
 8000dde:	9301      	str	r3, [sp, #4]
  if (HAL_TIMEx_MasterConfigSynchronization(&htim1, &sMasterConfig) != HAL_OK)
 8000de0:	4669      	mov	r1, sp
 8000de2:	4806      	ldr	r0, [pc, #24]	@ (8000dfc <MX_TIM1_Init+0x60>)
 8000de4:	f002 f8d6 	bl	8002f94 <HAL_TIMEx_MasterConfigSynchronization>
 8000de8:	b930      	cbnz	r0, 8000df8 <MX_TIM1_Init+0x5c>
}
 8000dea:	b007      	add	sp, #28
 8000dec:	f85d fb04 	ldr.w	pc, [sp], #4
    Error_Handler();
 8000df0:	f7ff ff42 	bl	8000c78 <Error_Handler>
    Error_Handler();
 8000df4:	f7ff ff40 	bl	8000c78 <Error_Handler>
    Error_Handler();
 8000df8:	f7ff ff3e 	bl	8000c78 <Error_Handler>
 8000dfc:	20000368 	.word	0x20000368
 8000e00:	40010000 	.word	0x40010000

08000e04 <MX_USART1_UART_Init>:
{
 8000e04:	b508      	push	{r3, lr}
  huart1.Instance = USART1;
 8000e06:	480a      	ldr	r0, [pc, #40]	@ (8000e30 <MX_USART1_UART_Init+0x2c>)
 8000e08:	4b0a      	ldr	r3, [pc, #40]	@ (8000e34 <MX_USART1_UART_Init+0x30>)
 8000e0a:	6003      	str	r3, [r0, #0]
  huart1.Init.BaudRate = 115200;
 8000e0c:	f44f 33e1 	mov.w	r3, #115200	@ 0x1c200
 8000e10:	6043      	str	r3, [r0, #4]
  huart1.Init.WordLength = UART_WORDLENGTH_8B;
 8000e12:	2300      	movs	r3, #0
 8000e14:	6083      	str	r3, [r0, #8]
  huart1.Init.StopBits = UART_STOPBITS_1;
 8000e16:	60c3      	str	r3, [r0, #12]
  huart1.Init.Parity = UART_PARITY_NONE;
 8000e18:	6103      	str	r3, [r0, #16]
  huart1.Init.Mode = UART_MODE_TX_RX;
 8000e1a:	220c      	movs	r2, #12
 8000e1c:	6142      	str	r2, [r0, #20]
  huart1.Init.HwFlowCtl = UART_HWCONTROL_NONE;
 8000e1e:	6183      	str	r3, [r0, #24]
  huart1.Init.OverSampling = UART_OVERSAMPLING_16;
 8000e20:	61c3      	str	r3, [r0, #28]
  if (HAL_UART_Init(&huart1) != HAL_OK)
 8000e22:	f002 fa08 	bl	8003236 <HAL_UART_Init>
 8000e26:	b900      	cbnz	r0, 8000e2a <MX_USART1_UART_Init+0x26>
}
 8000e28:	bd08      	pop	{r3, pc}
    Error_Handler();
 8000e2a:	f7ff ff25 	bl	8000c78 <Error_Handler>
 8000e2e:	bf00      	nop
 8000e30:	20000320 	.word	0x20000320
 8000e34:	40011000 	.word	0x40011000

08000e38 <MX_ADC1_Init>:
{
 8000e38:	b500      	push	{lr}
 8000e3a:	b085      	sub	sp, #20
  ADC_ChannelConfTypeDef sConfig = {0};
 8000e3c:	2300      	movs	r3, #0
 8000e3e:	9300      	str	r3, [sp, #0]
 8000e40:	9301      	str	r3, [sp, #4]
 8000e42:	9302      	str	r3, [sp, #8]
 8000e44:	9303      	str	r3, [sp, #12]
  hadc1.Instance = ADC1;
 8000e46:	481e      	ldr	r0, [pc, #120]	@ (8000ec0 <MX_ADC1_Init+0x88>)
 8000e48:	4a1e      	ldr	r2, [pc, #120]	@ (8000ec4 <MX_ADC1_Init+0x8c>)
 8000e4a:	6002      	str	r2, [r0, #0]
  hadc1.Init.ClockPrescaler = ADC_CLOCK_SYNC_PCLK_DIV2;
 8000e4c:	6043      	str	r3, [r0, #4]
  hadc1.Init.Resolution = ADC_RESOLUTION_12B;
 8000e4e:	6083      	str	r3, [r0, #8]
  hadc1.Init.ScanConvMode = ENABLE;
 8000e50:	2201      	movs	r2, #1
 8000e52:	6102      	str	r2, [r0, #16]
  hadc1.Init.ContinuousConvMode = ENABLE;
 8000e54:	7602      	strb	r2, [r0, #24]
  hadc1.Init.DiscontinuousConvMode = DISABLE;
 8000e56:	f880 3020 	strb.w	r3, [r0, #32]
  hadc1.Init.ExternalTrigConvEdge = ADC_EXTERNALTRIGCONVEDGE_NONE;
 8000e5a:	62c3      	str	r3, [r0, #44]	@ 0x2c
  hadc1.Init.ExternalTrigConv = ADC_SOFTWARE_START;
 8000e5c:	491a      	ldr	r1, [pc, #104]	@ (8000ec8 <MX_ADC1_Init+0x90>)
 8000e5e:	6281      	str	r1, [r0, #40]	@ 0x28
  hadc1.Init.DataAlign = ADC_DATAALIGN_RIGHT;
 8000e60:	60c3      	str	r3, [r0, #12]
  hadc1.Init.NbrOfConversion = 3;
 8000e62:	2303      	movs	r3, #3
 8000e64:	61c3      	str	r3, [r0, #28]
  hadc1.Init.DMAContinuousRequests = ENABLE;
 8000e66:	f880 2030 	strb.w	r2, [r0, #48]	@ 0x30
  hadc1.Init.EOCSelection = ADC_EOC_SINGLE_CONV;
 8000e6a:	6142      	str	r2, [r0, #20]
  if (HAL_ADC_Init(&hadc1) != HAL_OK)
 8000e6c:	f000 fdaa 	bl	80019c4 <HAL_ADC_Init>
 8000e70:	b9f0      	cbnz	r0, 8000eb0 <MX_ADC1_Init+0x78>
  sConfig.Channel = ADC_CHANNEL_5;
 8000e72:	2305      	movs	r3, #5
 8000e74:	9300      	str	r3, [sp, #0]
  sConfig.Rank = 1;
 8000e76:	2301      	movs	r3, #1
 8000e78:	9301      	str	r3, [sp, #4]
  sConfig.SamplingTime = ADC_SAMPLETIME_15CYCLES;
 8000e7a:	9302      	str	r3, [sp, #8]
  if (HAL_ADC_ConfigChannel(&hadc1, &sConfig) != HAL_OK)
 8000e7c:	4669      	mov	r1, sp
 8000e7e:	4810      	ldr	r0, [pc, #64]	@ (8000ec0 <MX_ADC1_Init+0x88>)
 8000e80:	f000 fee6 	bl	8001c50 <HAL_ADC_ConfigChannel>
 8000e84:	b9b0      	cbnz	r0, 8000eb4 <MX_ADC1_Init+0x7c>
  sConfig.Channel = ADC_CHANNEL_TEMPSENSOR;
 8000e86:	4b11      	ldr	r3, [pc, #68]	@ (8000ecc <MX_ADC1_Init+0x94>)
 8000e88:	9300      	str	r3, [sp, #0]
  sConfig.Rank = 2;
 8000e8a:	2302      	movs	r3, #2
 8000e8c:	9301      	str	r3, [sp, #4]
  if (HAL_ADC_ConfigChannel(&hadc1, &sConfig) != HAL_OK)
 8000e8e:	4669      	mov	r1, sp
 8000e90:	480b      	ldr	r0, [pc, #44]	@ (8000ec0 <MX_ADC1_Init+0x88>)
 8000e92:	f000 fedd 	bl	8001c50 <HAL_ADC_ConfigChannel>
 8000e96:	b978      	cbnz	r0, 8000eb8 <MX_ADC1_Init+0x80>
  sConfig.Channel = ADC_CHANNEL_VREFINT;
 8000e98:	2311      	movs	r3, #17
 8000e9a:	9300      	str	r3, [sp, #0]
  sConfig.Rank = 3;
 8000e9c:	2303      	movs	r3, #3
 8000e9e:	9301      	str	r3, [sp, #4]
  if (HAL_ADC_ConfigChannel(&hadc1, &sConfig) != HAL_OK)
 8000ea0:	4669      	mov	r1, sp
 8000ea2:	4807      	ldr	r0, [pc, #28]	@ (8000ec0 <MX_ADC1_Init+0x88>)
 8000ea4:	f000 fed4 	bl	8001c50 <HAL_ADC_ConfigChannel>
 8000ea8:	b940      	cbnz	r0, 8000ebc <MX_ADC1_Init+0x84>
}
 8000eaa:	b005      	add	sp, #20
 8000eac:	f85d fb04 	ldr.w	pc, [sp], #4
    Error_Handler();
 8000eb0:	f7ff fee2 	bl	8000c78 <Error_Handler>
    Error_Handler();
 8000eb4:	f7ff fee0 	bl	8000c78 <Error_Handler>
    Error_Handler();
 8000eb8:	f7ff fede 	bl	8000c78 <Error_Handler>
    Error_Handler();
 8000ebc:	f7ff fedc 	bl	8000c78 <Error_Handler>
 8000ec0:	2000056c 	.word	0x2000056c
 8000ec4:	40012000 	.word	0x40012000
 8000ec8:	0f000001 	.word	0x0f000001
 8000ecc:	10000012 	.word	0x10000012

08000ed0 <MX_LTDC_Init>:
{
 8000ed0:	b500      	push	{lr}
 8000ed2:	b08f      	sub	sp, #60	@ 0x3c
  LTDC_LayerCfgTypeDef pLayerCfg = {0};
 8000ed4:	2234      	movs	r2, #52	@ 0x34
 8000ed6:	2100      	movs	r1, #0
 8000ed8:	a801      	add	r0, sp, #4
 8000eda:	f002 fc7d 	bl	80037d8 <memset>
  hltdc.Instance = LTDC;
 8000ede:	4825      	ldr	r0, [pc, #148]	@ (8000f74 <MX_LTDC_Init+0xa4>)
 8000ee0:	4b25      	ldr	r3, [pc, #148]	@ (8000f78 <MX_LTDC_Init+0xa8>)
 8000ee2:	6003      	str	r3, [r0, #0]
  hltdc.Init.HSPolarity = LTDC_HSPOLARITY_AL;
 8000ee4:	2300      	movs	r3, #0
 8000ee6:	6043      	str	r3, [r0, #4]
  hltdc.Init.VSPolarity = LTDC_VSPOLARITY_AL;
 8000ee8:	6083      	str	r3, [r0, #8]
  hltdc.Init.DEPolarity = LTDC_DEPOLARITY_AL;
 8000eea:	60c3      	str	r3, [r0, #12]
  hltdc.Init.PCPolarity = LTDC_PCPOLARITY_IPC;
 8000eec:	6103      	str	r3, [r0, #16]
  hltdc.Init.HorizontalSync = 7;
 8000eee:	2207      	movs	r2, #7
 8000ef0:	6142      	str	r2, [r0, #20]
  hltdc.Init.VerticalSync = 3;
 8000ef2:	2203      	movs	r2, #3
 8000ef4:	6182      	str	r2, [r0, #24]
  hltdc.Init.AccumulatedHBP = 14;
 8000ef6:	220e      	movs	r2, #14
 8000ef8:	61c2      	str	r2, [r0, #28]
  hltdc.Init.AccumulatedVBP = 5;
 8000efa:	2205      	movs	r2, #5
 8000efc:	6202      	str	r2, [r0, #32]
  hltdc.Init.AccumulatedActiveW = 334;
 8000efe:	f44f 72a7 	mov.w	r2, #334	@ 0x14e
 8000f02:	6242      	str	r2, [r0, #36]	@ 0x24
  hltdc.Init.AccumulatedActiveH = 245;
 8000f04:	22f5      	movs	r2, #245	@ 0xf5
 8000f06:	6282      	str	r2, [r0, #40]	@ 0x28
  hltdc.Init.TotalWidth = 340;
 8000f08:	f44f 72aa 	mov.w	r2, #340	@ 0x154
 8000f0c:	62c2      	str	r2, [r0, #44]	@ 0x2c
  hltdc.Init.TotalHeigh = 247;
 8000f0e:	22f7      	movs	r2, #247	@ 0xf7
 8000f10:	6302      	str	r2, [r0, #48]	@ 0x30
  hltdc.Init.Backcolor.Blue = 0;
 8000f12:	f880 3034 	strb.w	r3, [r0, #52]	@ 0x34
  hltdc.Init.Backcolor.Green = 0;
 8000f16:	f880 3035 	strb.w	r3, [r0, #53]	@ 0x35
  hltdc.Init.Backcolor.Red = 0;
 8000f1a:	f880 3036 	strb.w	r3, [r0, #54]	@ 0x36
  if (HAL_LTDC_Init(&hltdc) != HAL_OK)
 8000f1e:	f001 fc0d 	bl	800273c <HAL_LTDC_Init>
 8000f22:	bb10      	cbnz	r0, 8000f6a <MX_LTDC_Init+0x9a>
  pLayerCfg.WindowX0 = 0;
 8000f24:	2200      	movs	r2, #0
 8000f26:	9201      	str	r2, [sp, #4]
  pLayerCfg.WindowX1 = 320;
 8000f28:	f44f 71a0 	mov.w	r1, #320	@ 0x140
 8000f2c:	9102      	str	r1, [sp, #8]
  pLayerCfg.WindowY0 = 0;
 8000f2e:	9203      	str	r2, [sp, #12]
  pLayerCfg.WindowY1 = 240;
 8000f30:	23f0      	movs	r3, #240	@ 0xf0
 8000f32:	9304      	str	r3, [sp, #16]
  pLayerCfg.PixelFormat = LTDC_PIXEL_FORMAT_RGB565;
 8000f34:	2002      	movs	r0, #2
 8000f36:	9005      	str	r0, [sp, #20]
  pLayerCfg.Alpha = 255;
 8000f38:	20ff      	movs	r0, #255	@ 0xff
 8000f3a:	9006      	str	r0, [sp, #24]
  pLayerCfg.Alpha0 = 0;
 8000f3c:	9207      	str	r2, [sp, #28]
  pLayerCfg.BlendingFactor1 = LTDC_BLENDING_FACTOR1_PAxCA;
 8000f3e:	f44f 60c0 	mov.w	r0, #1536	@ 0x600
 8000f42:	9008      	str	r0, [sp, #32]
  pLayerCfg.BlendingFactor2 = LTDC_BLENDING_FACTOR2_PAxCA;
 8000f44:	2007      	movs	r0, #7
 8000f46:	9009      	str	r0, [sp, #36]	@ 0x24
  pLayerCfg.FBStartAdress = 0;
 8000f48:	920a      	str	r2, [sp, #40]	@ 0x28
  pLayerCfg.ImageWidth = 320;
 8000f4a:	910b      	str	r1, [sp, #44]	@ 0x2c
  pLayerCfg.ImageHeight = 240;
 8000f4c:	930c      	str	r3, [sp, #48]	@ 0x30
  pLayerCfg.Backcolor.Blue = 0;
 8000f4e:	f88d 2034 	strb.w	r2, [sp, #52]	@ 0x34
  pLayerCfg.Backcolor.Green = 0;
 8000f52:	f88d 2035 	strb.w	r2, [sp, #53]	@ 0x35
  pLayerCfg.Backcolor.Red = 0;
 8000f56:	f88d 2036 	strb.w	r2, [sp, #54]	@ 0x36
  if (HAL_LTDC_ConfigLayer(&hltdc, &pLayerCfg, 0) != HAL_OK)
 8000f5a:	a901      	add	r1, sp, #4
 8000f5c:	4805      	ldr	r0, [pc, #20]	@ (8000f74 <MX_LTDC_Init+0xa4>)
 8000f5e:	f001 fcd7 	bl	8002910 <HAL_LTDC_ConfigLayer>
 8000f62:	b920      	cbnz	r0, 8000f6e <MX_LTDC_Init+0x9e>
}
 8000f64:	b00f      	add	sp, #60	@ 0x3c
 8000f66:	f85d fb04 	ldr.w	pc, [sp], #4
    Error_Handler();
 8000f6a:	f7ff fe85 	bl	8000c78 <Error_Handler>
    Error_Handler();
 8000f6e:	f7ff fe83 	bl	8000c78 <Error_Handler>
 8000f72:	bf00      	nop
 8000f74:	20000408 	.word	0x20000408
 8000f78:	40016800 	.word	0x40016800

08000f7c <SystemClock_Config>:
{
 8000f7c:	b508      	push	{r3, lr}
  *         @arg @ref LL_FLASH_LATENCY_15
  * @retval None
  */
__STATIC_INLINE void LL_FLASH_SetLatency(uint32_t Latency)
{
  MODIFY_REG(FLASH->ACR, FLASH_ACR_LATENCY, Latency);
 8000f7e:	4a35      	ldr	r2, [pc, #212]	@ (8001054 <SystemClock_Config+0xd8>)
 8000f80:	6813      	ldr	r3, [r2, #0]
 8000f82:	f023 030f 	bic.w	r3, r3, #15
 8000f86:	f043 0303 	orr.w	r3, r3, #3
 8000f8a:	6013      	str	r3, [r2, #0]
  *         @arg @ref LL_FLASH_LATENCY_14
  *         @arg @ref LL_FLASH_LATENCY_15
  */
__STATIC_INLINE uint32_t LL_FLASH_GetLatency(void)
{
  return (uint32_t)(READ_BIT(FLASH->ACR, FLASH_ACR_LATENCY));
 8000f8c:	4b31      	ldr	r3, [pc, #196]	@ (8001054 <SystemClock_Config+0xd8>)
 8000f8e:	681b      	ldr	r3, [r3, #0]
 8000f90:	f003 030f 	and.w	r3, r3, #15
  while(LL_FLASH_GetLatency()!= LL_FLASH_LATENCY_3)
 8000f94:	2b03      	cmp	r3, #3
 8000f96:	d1f9      	bne.n	8000f8c <SystemClock_Config+0x10>
  *         (*) LL_PWR_REGU_VOLTAGE_SCALE1 is not available for STM32F401xx devices
  * @retval None
  */
__STATIC_INLINE void LL_PWR_SetRegulVoltageScaling(uint32_t VoltageScaling)
{
  MODIFY_REG(PWR->CR, PWR_CR_VOS, VoltageScaling);
 8000f98:	4a2f      	ldr	r2, [pc, #188]	@ (8001058 <SystemClock_Config+0xdc>)
 8000f9a:	6813      	ldr	r3, [r2, #0]
 8000f9c:	f423 4340 	bic.w	r3, r3, #49152	@ 0xc000
 8000fa0:	f443 4380 	orr.w	r3, r3, #16384	@ 0x4000
 8000fa4:	6013      	str	r3, [r2, #0]
  CLEAR_BIT(PWR->CR, PWR_CR_ODEN);
 8000fa6:	6813      	ldr	r3, [r2, #0]
 8000fa8:	f423 3380 	bic.w	r3, r3, #65536	@ 0x10000
 8000fac:	6013      	str	r3, [r2, #0]
  SET_BIT(RCC->CR, RCC_CR_HSEON);
 8000fae:	f502 32e4 	add.w	r2, r2, #116736	@ 0x1c800
 8000fb2:	6813      	ldr	r3, [r2, #0]
 8000fb4:	f443 3380 	orr.w	r3, r3, #65536	@ 0x10000
 8000fb8:	6013      	str	r3, [r2, #0]
  return (READ_BIT(RCC->CR, RCC_CR_HSERDY) == (RCC_CR_HSERDY));
 8000fba:	4b28      	ldr	r3, [pc, #160]	@ (800105c <SystemClock_Config+0xe0>)
 8000fbc:	681b      	ldr	r3, [r3, #0]
  while(LL_RCC_HSE_IsReady() != 1)
 8000fbe:	f413 3f00 	tst.w	r3, #131072	@ 0x20000
 8000fc2:	d0fa      	beq.n	8000fba <SystemClock_Config+0x3e>
  MODIFY_REG(RCC->PLLCFGR, RCC_PLLCFGR_PLLSRC | RCC_PLLCFGR_PLLM | RCC_PLLCFGR_PLLN,
 8000fc4:	4b25      	ldr	r3, [pc, #148]	@ (800105c <SystemClock_Config+0xe0>)
 8000fc6:	685a      	ldr	r2, [r3, #4]
 8000fc8:	4925      	ldr	r1, [pc, #148]	@ (8001060 <SystemClock_Config+0xe4>)
 8000fca:	4011      	ands	r1, r2
 8000fcc:	4a25      	ldr	r2, [pc, #148]	@ (8001064 <SystemClock_Config+0xe8>)
 8000fce:	430a      	orrs	r2, r1
 8000fd0:	605a      	str	r2, [r3, #4]
  MODIFY_REG(RCC->PLLCFGR, RCC_PLLCFGR_PLLP, PLLP_R);
 8000fd2:	685a      	ldr	r2, [r3, #4]
 8000fd4:	f422 3240 	bic.w	r2, r2, #196608	@ 0x30000
 8000fd8:	605a      	str	r2, [r3, #4]
  SET_BIT(RCC->CR, RCC_CR_PLLON);
 8000fda:	681a      	ldr	r2, [r3, #0]
 8000fdc:	f042 7280 	orr.w	r2, r2, #16777216	@ 0x1000000
 8000fe0:	601a      	str	r2, [r3, #0]
  return (READ_BIT(RCC->CR, RCC_CR_PLLRDY) == (RCC_CR_PLLRDY));
 8000fe2:	4b1e      	ldr	r3, [pc, #120]	@ (800105c <SystemClock_Config+0xe0>)
 8000fe4:	681b      	ldr	r3, [r3, #0]
  while(LL_RCC_PLL_IsReady() != 1)
 8000fe6:	f013 7f00 	tst.w	r3, #33554432	@ 0x2000000
 8000fea:	d0fa      	beq.n	8000fe2 <SystemClock_Config+0x66>
  * @rmtoll CSR   VOS       LL_PWR_IsActiveFlag_VOS
  * @retval State of bit (1 or 0).
  */
__STATIC_INLINE uint32_t LL_PWR_IsActiveFlag_VOS(void)
{
  return (READ_BIT(PWR->CSR, LL_PWR_CSR_VOS) == (LL_PWR_CSR_VOS));
 8000fec:	4b1a      	ldr	r3, [pc, #104]	@ (8001058 <SystemClock_Config+0xdc>)
 8000fee:	685b      	ldr	r3, [r3, #4]
  while (LL_PWR_IsActiveFlag_VOS() == 0)
 8000ff0:	f413 4f80 	tst.w	r3, #16384	@ 0x4000
 8000ff4:	d0fa      	beq.n	8000fec <SystemClock_Config+0x70>
  MODIFY_REG(RCC->CFGR, RCC_CFGR_HPRE, Prescaler);
 8000ff6:	4b19      	ldr	r3, [pc, #100]	@ (800105c <SystemClock_Config+0xe0>)
 8000ff8:	689a      	ldr	r2, [r3, #8]
 8000ffa:	f022 02f0 	bic.w	r2, r2, #240	@ 0xf0
 8000ffe:	609a      	str	r2, [r3, #8]
  MODIFY_REG(RCC->CFGR, RCC_CFGR_PPRE1, Prescaler);
 8001000:	689a      	ldr	r2, [r3, #8]
 8001002:	f422 52e0 	bic.w	r2, r2, #7168	@ 0x1c00
 8001006:	f442 52a0 	orr.w	r2, r2, #5120	@ 0x1400
 800100a:	609a      	str	r2, [r3, #8]
  MODIFY_REG(RCC->CFGR, RCC_CFGR_PPRE2, Prescaler);
 800100c:	689a      	ldr	r2, [r3, #8]
 800100e:	f422 4260 	bic.w	r2, r2, #57344	@ 0xe000
 8001012:	f442 4200 	orr.w	r2, r2, #32768	@ 0x8000
 8001016:	609a      	str	r2, [r3, #8]
  MODIFY_REG(RCC->CFGR, RCC_CFGR_SW, Source);
 8001018:	689a      	ldr	r2, [r3, #8]
 800101a:	f022 0203 	bic.w	r2, r2, #3
 800101e:	f042 0202 	orr.w	r2, r2, #2
 8001022:	609a      	str	r2, [r3, #8]
  return (uint32_t)(READ_BIT(RCC->CFGR, RCC_CFGR_SWS));
 8001024:	4b0d      	ldr	r3, [pc, #52]	@ (800105c <SystemClock_Config+0xe0>)
 8001026:	689b      	ldr	r3, [r3, #8]
 8001028:	f003 030c 	and.w	r3, r3, #12
  while(LL_RCC_GetSysClkSource() != LL_RCC_SYS_CLKSOURCE_STATUS_PLL)
 800102c:	2b08      	cmp	r3, #8
 800102e:	d1f9      	bne.n	8001024 <SystemClock_Config+0xa8>
  LL_SetSystemCoreClock(96000000);
 8001030:	480d      	ldr	r0, [pc, #52]	@ (8001068 <SystemClock_Config+0xec>)
 8001032:	f002 fb19 	bl	8003668 <LL_SetSystemCoreClock>
  if (HAL_InitTick (TICK_INT_PRIORITY) != HAL_OK)
 8001036:	200f      	movs	r0, #15
 8001038:	f000 fb1e 	bl	8001678 <HAL_InitTick>
 800103c:	b938      	cbnz	r0, 800104e <SystemClock_Config+0xd2>
  MODIFY_REG(RCC->DCKCFGR, RCC_DCKCFGR_TIMPRE, Prescaler);
 800103e:	4a07      	ldr	r2, [pc, #28]	@ (800105c <SystemClock_Config+0xe0>)
 8001040:	f8d2 308c 	ldr.w	r3, [r2, #140]	@ 0x8c
 8001044:	f023 7380 	bic.w	r3, r3, #16777216	@ 0x1000000
 8001048:	f8c2 308c 	str.w	r3, [r2, #140]	@ 0x8c
}
 800104c:	bd08      	pop	{r3, pc}
    Error_Handler();
 800104e:	f7ff fe13 	bl	8000c78 <Error_Handler>
 8001052:	bf00      	nop
 8001054:	40023c00 	.word	0x40023c00
 8001058:	40007000 	.word	0x40007000
 800105c:	40023800 	.word	0x40023800
 8001060:	ffbf8000 	.word	0xffbf8000
 8001064:	00401804 	.word	0x00401804
 8001068:	05b8d800 	.word	0x05b8d800

0800106c <main>:
{
 800106c:	b508      	push	{r3, lr}
  HAL_Init();
 800106e:	f000 fbcf 	bl	8001810 <HAL_Init>
  SystemClock_Config();
 8001072:	f7ff ff83 	bl	8000f7c <SystemClock_Config>
  PeriphCommonClock_Config();
 8001076:	f7ff fdc9 	bl	8000c0c <PeriphCommonClock_Config>
  MX_GPIO_Init();
 800107a:	f7ff fcdf 	bl	8000a3c <MX_GPIO_Init>
  MX_DMA_Init();
 800107e:	f7ff fccb 	bl	8000a18 <MX_DMA_Init>
  MX_CRC_Init();
 8001082:	f7ff fdfb 	bl	8000c7c <MX_CRC_Init>
  MX_FMC_Init();
 8001086:	f7ff fe07 	bl	8000c98 <MX_FMC_Init>
  MX_I2C3_Init();
 800108a:	f7ff fe3d 	bl	8000d08 <MX_I2C3_Init>
  MX_SPI5_Init();
 800108e:	f7ff fe65 	bl	8000d5c <MX_SPI5_Init>
  MX_TIM1_Init();
 8001092:	f7ff fe83 	bl	8000d9c <MX_TIM1_Init>
  MX_USART1_UART_Init();
 8001096:	f7ff feb5 	bl	8000e04 <MX_USART1_UART_Init>
  MX_ADC1_Init();
 800109a:	f7ff fecd 	bl	8000e38 <MX_ADC1_Init>
  MX_LTDC_Init();
 800109e:	f7ff ff17 	bl	8000ed0 <MX_LTDC_Init>
  apInit();
 80010a2:	f7ff fae1 	bl	8000668 <apInit>
  apMain(); // 안에 while문이 있음.
 80010a6:	f7ff faef 	bl	8000688 <apMain>
  while (1)
 80010aa:	e7fe      	b.n	80010aa <main+0x3e>

080010ac <HAL_FMC_MspInit>:

}

static uint32_t FMC_Initialized = 0;

static void HAL_FMC_MspInit(void){
 80010ac:	e92d 41f0 	stmdb	sp!, {r4, r5, r6, r7, r8, lr}
 80010b0:	b086      	sub	sp, #24
  /* USER CODE BEGIN FMC_MspInit 0 */

  /* USER CODE END FMC_MspInit 0 */
  GPIO_InitTypeDef GPIO_InitStruct ={0};
 80010b2:	2300      	movs	r3, #0
 80010b4:	9301      	str	r3, [sp, #4]
 80010b6:	9302      	str	r3, [sp, #8]
 80010b8:	9303      	str	r3, [sp, #12]
 80010ba:	9304      	str	r3, [sp, #16]
 80010bc:	9305      	str	r3, [sp, #20]
  if (FMC_Initialized) {
 80010be:	4b2d      	ldr	r3, [pc, #180]	@ (8001174 <HAL_FMC_MspInit+0xc8>)
 80010c0:	681b      	ldr	r3, [r3, #0]
 80010c2:	b113      	cbz	r3, 80010ca <HAL_FMC_MspInit+0x1e>
  HAL_GPIO_Init(GPIOB, &GPIO_InitStruct);

  /* USER CODE BEGIN FMC_MspInit 1 */

  /* USER CODE END FMC_MspInit 1 */
}
 80010c4:	b006      	add	sp, #24
 80010c6:	e8bd 81f0 	ldmia.w	sp!, {r4, r5, r6, r7, r8, pc}
  FMC_Initialized = 1;
 80010ca:	f04f 0801 	mov.w	r8, #1
 80010ce:	4b29      	ldr	r3, [pc, #164]	@ (8001174 <HAL_FMC_MspInit+0xc8>)
 80010d0:	f8c3 8000 	str.w	r8, [r3]
  __HAL_RCC_FMC_CLK_ENABLE();
 80010d4:	2600      	movs	r6, #0
 80010d6:	9600      	str	r6, [sp, #0]
 80010d8:	4b27      	ldr	r3, [pc, #156]	@ (8001178 <HAL_FMC_MspInit+0xcc>)
 80010da:	6b9a      	ldr	r2, [r3, #56]	@ 0x38
 80010dc:	ea42 0208 	orr.w	r2, r2, r8
 80010e0:	639a      	str	r2, [r3, #56]	@ 0x38
 80010e2:	6b9b      	ldr	r3, [r3, #56]	@ 0x38
 80010e4:	ea03 0308 	and.w	r3, r3, r8
 80010e8:	9300      	str	r3, [sp, #0]
 80010ea:	9b00      	ldr	r3, [sp, #0]
  GPIO_InitStruct.Pin = A0_Pin|A1_Pin|A2_Pin|A3_Pin
 80010ec:	f64f 033f 	movw	r3, #63551	@ 0xf83f
 80010f0:	9301      	str	r3, [sp, #4]
  GPIO_InitStruct.Mode = GPIO_MODE_AF_PP;
 80010f2:	2702      	movs	r7, #2
 80010f4:	9702      	str	r7, [sp, #8]
  GPIO_InitStruct.Speed = GPIO_SPEED_FREQ_VERY_HIGH;
 80010f6:	2503      	movs	r5, #3
 80010f8:	9504      	str	r5, [sp, #16]
  GPIO_InitStruct.Alternate = GPIO_AF12_FMC;
 80010fa:	240c      	movs	r4, #12
 80010fc:	9405      	str	r4, [sp, #20]
  HAL_GPIO_Init(GPIOF, &GPIO_InitStruct);
 80010fe:	a901      	add	r1, sp, #4
 8001100:	481e      	ldr	r0, [pc, #120]	@ (800117c <HAL_FMC_MspInit+0xd0>)
 8001102:	f001 f80f 	bl	8002124 <HAL_GPIO_Init>
  GPIO_InitStruct.Pin = SDNWE_Pin;
 8001106:	f8cd 8004 	str.w	r8, [sp, #4]
  GPIO_InitStruct.Mode = GPIO_MODE_AF_PP;
 800110a:	9702      	str	r7, [sp, #8]
  GPIO_InitStruct.Pull = GPIO_NOPULL;
 800110c:	9603      	str	r6, [sp, #12]
  GPIO_InitStruct.Speed = GPIO_SPEED_FREQ_VERY_HIGH;
 800110e:	9504      	str	r5, [sp, #16]
  GPIO_InitStruct.Alternate = GPIO_AF12_FMC;
 8001110:	9405      	str	r4, [sp, #20]
  HAL_GPIO_Init(SDNWE_GPIO_Port, &GPIO_InitStruct);
 8001112:	a901      	add	r1, sp, #4
 8001114:	481a      	ldr	r0, [pc, #104]	@ (8001180 <HAL_FMC_MspInit+0xd4>)
 8001116:	f001 f805 	bl	8002124 <HAL_GPIO_Init>
  GPIO_InitStruct.Pin = A10_Pin|A11_Pin|BA0_Pin|BA1_Pin
 800111a:	f248 1333 	movw	r3, #33075	@ 0x8133
 800111e:	9301      	str	r3, [sp, #4]
  GPIO_InitStruct.Mode = GPIO_MODE_AF_PP;
 8001120:	9702      	str	r7, [sp, #8]
  GPIO_InitStruct.Pull = GPIO_NOPULL;
 8001122:	9603      	str	r6, [sp, #12]
  GPIO_InitStruct.Speed = GPIO_SPEED_FREQ_VERY_HIGH;
 8001124:	9504      	str	r5, [sp, #16]
  GPIO_InitStruct.Alternate = GPIO_AF12_FMC;
 8001126:	9405      	str	r4, [sp, #20]
  HAL_GPIO_Init(GPIOG, &GPIO_InitStruct);
 8001128:	a901      	add	r1, sp, #4
 800112a:	4816      	ldr	r0, [pc, #88]	@ (8001184 <HAL_FMC_MspInit+0xd8>)
 800112c:	f000 fffa 	bl	8002124 <HAL_GPIO_Init>
  GPIO_InitStruct.Pin = D4_Pin|D5_Pin|D6_Pin|D7_Pin
 8001130:	f64f 7383 	movw	r3, #65411	@ 0xff83
 8001134:	9301      	str	r3, [sp, #4]
  GPIO_InitStruct.Mode = GPIO_MODE_AF_PP;
 8001136:	9702      	str	r7, [sp, #8]
  GPIO_InitStruct.Pull = GPIO_NOPULL;
 8001138:	9603      	str	r6, [sp, #12]
  GPIO_InitStruct.Speed = GPIO_SPEED_FREQ_VERY_HIGH;
 800113a:	9504      	str	r5, [sp, #16]
  GPIO_InitStruct.Alternate = GPIO_AF12_FMC;
 800113c:	9405      	str	r4, [sp, #20]
  HAL_GPIO_Init(GPIOE, &GPIO_InitStruct);
 800113e:	a901      	add	r1, sp, #4
 8001140:	4811      	ldr	r0, [pc, #68]	@ (8001188 <HAL_FMC_MspInit+0xdc>)
 8001142:	f000 ffef 	bl	8002124 <HAL_GPIO_Init>
  GPIO_InitStruct.Pin = D13_Pin|D14_Pin|D15_Pin|D0_Pin
 8001146:	f24c 7303 	movw	r3, #50947	@ 0xc703
 800114a:	9301      	str	r3, [sp, #4]
  GPIO_InitStruct.Mode = GPIO_MODE_AF_PP;
 800114c:	9702      	str	r7, [sp, #8]
  GPIO_InitStruct.Pull = GPIO_NOPULL;
 800114e:	9603      	str	r6, [sp, #12]
  GPIO_InitStruct.Speed = GPIO_SPEED_FREQ_VERY_HIGH;
 8001150:	9504      	str	r5, [sp, #16]
  GPIO_InitStruct.Alternate = GPIO_AF12_FMC;
 8001152:	9405      	str	r4, [sp, #20]
  HAL_GPIO_Init(GPIOD, &GPIO_InitStruct);
 8001154:	a901      	add	r1, sp, #4
 8001156:	480d      	ldr	r0, [pc, #52]	@ (800118c <HAL_FMC_MspInit+0xe0>)
 8001158:	f000 ffe4 	bl	8002124 <HAL_GPIO_Init>
  GPIO_InitStruct.Pin = SDCKE1_Pin|SDNE1_Pin;
 800115c:	2360      	movs	r3, #96	@ 0x60
 800115e:	9301      	str	r3, [sp, #4]
  GPIO_InitStruct.Mode = GPIO_MODE_AF_PP;
 8001160:	9702      	str	r7, [sp, #8]
  GPIO_InitStruct.Pull = GPIO_NOPULL;
 8001162:	9603      	str	r6, [sp, #12]
  GPIO_InitStruct.Speed = GPIO_SPEED_FREQ_VERY_HIGH;
 8001164:	9504      	str	r5, [sp, #16]
  GPIO_InitStruct.Alternate = GPIO_AF12_FMC;
 8001166:	9405      	str	r4, [sp, #20]
  HAL_GPIO_Init(GPIOB, &GPIO_InitStruct);
 8001168:	a901      	add	r1, sp, #4
 800116a:	4809      	ldr	r0, [pc, #36]	@ (8001190 <HAL_FMC_MspInit+0xe4>)
 800116c:	f000 ffda 	bl	8002124 <HAL_GPIO_Init>
 8001170:	e7a8      	b.n	80010c4 <HAL_FMC_MspInit+0x18>
 8001172:	bf00      	nop
 8001174:	200005b4 	.word	0x200005b4
 8001178:	40023800 	.word	0x40023800
 800117c:	40021400 	.word	0x40021400
 8001180:	40020800 	.word	0x40020800
 8001184:	40021800 	.word	0x40021800
 8001188:	40021000 	.word	0x40021000
 800118c:	40020c00 	.word	0x40020c00
 8001190:	40020400 	.word	0x40020400

08001194 <HAL_MspInit>:
{
 8001194:	b082      	sub	sp, #8
  __HAL_RCC_SYSCFG_CLK_ENABLE();
 8001196:	2100      	movs	r1, #0
 8001198:	9100      	str	r1, [sp, #0]
 800119a:	4b0b      	ldr	r3, [pc, #44]	@ (80011c8 <HAL_MspInit+0x34>)
 800119c:	6c5a      	ldr	r2, [r3, #68]	@ 0x44
 800119e:	f442 4280 	orr.w	r2, r2, #16384	@ 0x4000
 80011a2:	645a      	str	r2, [r3, #68]	@ 0x44
 80011a4:	6c5a      	ldr	r2, [r3, #68]	@ 0x44
 80011a6:	f402 4280 	and.w	r2, r2, #16384	@ 0x4000
 80011aa:	9200      	str	r2, [sp, #0]
 80011ac:	9a00      	ldr	r2, [sp, #0]
  __HAL_RCC_PWR_CLK_ENABLE();
 80011ae:	9101      	str	r1, [sp, #4]
 80011b0:	6c1a      	ldr	r2, [r3, #64]	@ 0x40
 80011b2:	f042 5280 	orr.w	r2, r2, #268435456	@ 0x10000000
 80011b6:	641a      	str	r2, [r3, #64]	@ 0x40
 80011b8:	6c1b      	ldr	r3, [r3, #64]	@ 0x40
 80011ba:	f003 5380 	and.w	r3, r3, #268435456	@ 0x10000000
 80011be:	9301      	str	r3, [sp, #4]
 80011c0:	9b01      	ldr	r3, [sp, #4]
}
 80011c2:	b002      	add	sp, #8
 80011c4:	4770      	bx	lr
 80011c6:	bf00      	nop
 80011c8:	40023800 	.word	0x40023800

080011cc <HAL_ADC_MspInit>:
{
 80011cc:	b530      	push	{r4, r5, lr}
 80011ce:	b089      	sub	sp, #36	@ 0x24
  GPIO_InitTypeDef GPIO_InitStruct = {0};
 80011d0:	2300      	movs	r3, #0
 80011d2:	9303      	str	r3, [sp, #12]
 80011d4:	9304      	str	r3, [sp, #16]
 80011d6:	9305      	str	r3, [sp, #20]
 80011d8:	9306      	str	r3, [sp, #24]
 80011da:	9307      	str	r3, [sp, #28]
  if(hadc->Instance==ADC1)
 80011dc:	6802      	ldr	r2, [r0, #0]
 80011de:	f103 4380 	add.w	r3, r3, #1073741824	@ 0x40000000
 80011e2:	f503 3390 	add.w	r3, r3, #73728	@ 0x12000
 80011e6:	429a      	cmp	r2, r3
 80011e8:	d001      	beq.n	80011ee <HAL_ADC_MspInit+0x22>
}
 80011ea:	b009      	add	sp, #36	@ 0x24
 80011ec:	bd30      	pop	{r4, r5, pc}
 80011ee:	4604      	mov	r4, r0
    __HAL_RCC_ADC1_CLK_ENABLE();
 80011f0:	2500      	movs	r5, #0
 80011f2:	9501      	str	r5, [sp, #4]
 80011f4:	f503 338c 	add.w	r3, r3, #71680	@ 0x11800
 80011f8:	6c5a      	ldr	r2, [r3, #68]	@ 0x44
 80011fa:	f442 7280 	orr.w	r2, r2, #256	@ 0x100
 80011fe:	645a      	str	r2, [r3, #68]	@ 0x44
 8001200:	6c5a      	ldr	r2, [r3, #68]	@ 0x44
 8001202:	f402 7280 	and.w	r2, r2, #256	@ 0x100
 8001206:	9201      	str	r2, [sp, #4]
 8001208:	9a01      	ldr	r2, [sp, #4]
    __HAL_RCC_GPIOA_CLK_ENABLE();
 800120a:	9502      	str	r5, [sp, #8]
 800120c:	6b1a      	ldr	r2, [r3, #48]	@ 0x30
 800120e:	f042 0201 	orr.w	r2, r2, #1
 8001212:	631a      	str	r2, [r3, #48]	@ 0x30
 8001214:	6b1b      	ldr	r3, [r3, #48]	@ 0x30
 8001216:	f003 0301 	and.w	r3, r3, #1
 800121a:	9302      	str	r3, [sp, #8]
 800121c:	9b02      	ldr	r3, [sp, #8]
    GPIO_InitStruct.Pin = GPIO_PIN_5;
 800121e:	2320      	movs	r3, #32
 8001220:	9303      	str	r3, [sp, #12]
    GPIO_InitStruct.Mode = GPIO_MODE_ANALOG;
 8001222:	2303      	movs	r3, #3
 8001224:	9304      	str	r3, [sp, #16]
    HAL_GPIO_Init(GPIOA, &GPIO_InitStruct);
 8001226:	a903      	add	r1, sp, #12
 8001228:	4810      	ldr	r0, [pc, #64]	@ (800126c <HAL_ADC_MspInit+0xa0>)
 800122a:	f000 ff7b 	bl	8002124 <HAL_GPIO_Init>
    hdma_adc1.Instance = DMA2_Stream0;
 800122e:	4810      	ldr	r0, [pc, #64]	@ (8001270 <HAL_ADC_MspInit+0xa4>)
 8001230:	4b10      	ldr	r3, [pc, #64]	@ (8001274 <HAL_ADC_MspInit+0xa8>)
 8001232:	6003      	str	r3, [r0, #0]
    hdma_adc1.Init.Channel = DMA_CHANNEL_0;
 8001234:	6045      	str	r5, [r0, #4]
    hdma_adc1.Init.Direction = DMA_PERIPH_TO_MEMORY;
 8001236:	6085      	str	r5, [r0, #8]
    hdma_adc1.Init.PeriphInc = DMA_PINC_DISABLE;
 8001238:	60c5      	str	r5, [r0, #12]
    hdma_adc1.Init.MemInc = DMA_MINC_ENABLE;
 800123a:	f44f 6380 	mov.w	r3, #1024	@ 0x400
 800123e:	6103      	str	r3, [r0, #16]
    hdma_adc1.Init.PeriphDataAlignment = DMA_PDATAALIGN_HALFWORD;
 8001240:	f44f 6300 	mov.w	r3, #2048	@ 0x800
 8001244:	6143      	str	r3, [r0, #20]
    hdma_adc1.Init.MemDataAlignment = DMA_MDATAALIGN_HALFWORD;
 8001246:	f44f 5300 	mov.w	r3, #8192	@ 0x2000
 800124a:	6183      	str	r3, [r0, #24]
    hdma_adc1.Init.Mode = DMA_CIRCULAR;
 800124c:	f44f 7380 	mov.w	r3, #256	@ 0x100
 8001250:	61c3      	str	r3, [r0, #28]
    hdma_adc1.Init.Priority = DMA_PRIORITY_LOW;
 8001252:	6205      	str	r5, [r0, #32]
    hdma_adc1.Init.FIFOMode = DMA_FIFOMODE_DISABLE;
 8001254:	6245      	str	r5, [r0, #36]	@ 0x24
    if (HAL_DMA_Init(&hdma_adc1) != HAL_OK)
 8001256:	f000 fec9 	bl	8001fec <HAL_DMA_Init>
 800125a:	b918      	cbnz	r0, 8001264 <HAL_ADC_MspInit+0x98>
    __HAL_LINKDMA(hadc,DMA_Handle,hdma_adc1);
 800125c:	4b04      	ldr	r3, [pc, #16]	@ (8001270 <HAL_ADC_MspInit+0xa4>)
 800125e:	63a3      	str	r3, [r4, #56]	@ 0x38
 8001260:	639c      	str	r4, [r3, #56]	@ 0x38
}
 8001262:	e7c2      	b.n	80011ea <HAL_ADC_MspInit+0x1e>
      Error_Handler();
 8001264:	f7ff fd08 	bl	8000c78 <Error_Handler>
 8001268:	e7f8      	b.n	800125c <HAL_ADC_MspInit+0x90>
 800126a:	bf00      	nop
 800126c:	40020000 	.word	0x40020000
 8001270:	2000050c 	.word	0x2000050c
 8001274:	40026410 	.word	0x40026410

08001278 <HAL_CRC_MspInit>:
  if(hcrc->Instance==CRC)
 8001278:	6802      	ldr	r2, [r0, #0]
 800127a:	4b09      	ldr	r3, [pc, #36]	@ (80012a0 <HAL_CRC_MspInit+0x28>)
 800127c:	429a      	cmp	r2, r3
 800127e:	d000      	beq.n	8001282 <HAL_CRC_MspInit+0xa>
 8001280:	4770      	bx	lr
{
 8001282:	b082      	sub	sp, #8
    __HAL_RCC_CRC_CLK_ENABLE();
 8001284:	2300      	movs	r3, #0
 8001286:	9301      	str	r3, [sp, #4]
 8001288:	4b06      	ldr	r3, [pc, #24]	@ (80012a4 <HAL_CRC_MspInit+0x2c>)
 800128a:	6b1a      	ldr	r2, [r3, #48]	@ 0x30
 800128c:	f442 5280 	orr.w	r2, r2, #4096	@ 0x1000
 8001290:	631a      	str	r2, [r3, #48]	@ 0x30
 8001292:	6b1b      	ldr	r3, [r3, #48]	@ 0x30
 8001294:	f403 5380 	and.w	r3, r3, #4096	@ 0x1000
 8001298:	9301      	str	r3, [sp, #4]
 800129a:	9b01      	ldr	r3, [sp, #4]
}
 800129c:	b002      	add	sp, #8
 800129e:	4770      	bx	lr
 80012a0:	40023000 	.word	0x40023000
 80012a4:	40023800 	.word	0x40023800

080012a8 <HAL_I2C_MspInit>:
{
 80012a8:	e92d 41f0 	stmdb	sp!, {r4, r5, r6, r7, r8, lr}
 80012ac:	b088      	sub	sp, #32
  GPIO_InitTypeDef GPIO_InitStruct = {0};
 80012ae:	2300      	movs	r3, #0
 80012b0:	9303      	str	r3, [sp, #12]
 80012b2:	9304      	str	r3, [sp, #16]
 80012b4:	9305      	str	r3, [sp, #20]
 80012b6:	9306      	str	r3, [sp, #24]
 80012b8:	9307      	str	r3, [sp, #28]
  if(hi2c->Instance==I2C3)
 80012ba:	6802      	ldr	r2, [r0, #0]
 80012bc:	4b20      	ldr	r3, [pc, #128]	@ (8001340 <HAL_I2C_MspInit+0x98>)
 80012be:	429a      	cmp	r2, r3
 80012c0:	d002      	beq.n	80012c8 <HAL_I2C_MspInit+0x20>
}
 80012c2:	b008      	add	sp, #32
 80012c4:	e8bd 81f0 	ldmia.w	sp!, {r4, r5, r6, r7, r8, pc}
    __HAL_RCC_GPIOC_CLK_ENABLE();
 80012c8:	2500      	movs	r5, #0
 80012ca:	9500      	str	r5, [sp, #0]
 80012cc:	4c1d      	ldr	r4, [pc, #116]	@ (8001344 <HAL_I2C_MspInit+0x9c>)
 80012ce:	6b23      	ldr	r3, [r4, #48]	@ 0x30
 80012d0:	f043 0304 	orr.w	r3, r3, #4
 80012d4:	6323      	str	r3, [r4, #48]	@ 0x30
 80012d6:	6b23      	ldr	r3, [r4, #48]	@ 0x30
 80012d8:	f003 0304 	and.w	r3, r3, #4
 80012dc:	9300      	str	r3, [sp, #0]
 80012de:	9b00      	ldr	r3, [sp, #0]
    __HAL_RCC_GPIOA_CLK_ENABLE();
 80012e0:	9501      	str	r5, [sp, #4]
 80012e2:	6b23      	ldr	r3, [r4, #48]	@ 0x30
 80012e4:	f043 0301 	orr.w	r3, r3, #1
 80012e8:	6323      	str	r3, [r4, #48]	@ 0x30
 80012ea:	6b23      	ldr	r3, [r4, #48]	@ 0x30
 80012ec:	f003 0301 	and.w	r3, r3, #1
 80012f0:	9301      	str	r3, [sp, #4]
 80012f2:	9b01      	ldr	r3, [sp, #4]
    GPIO_InitStruct.Pin = I2C3_SDA_Pin;
 80012f4:	f44f 7300 	mov.w	r3, #512	@ 0x200
 80012f8:	9303      	str	r3, [sp, #12]
    GPIO_InitStruct.Mode = GPIO_MODE_AF_OD;
 80012fa:	f04f 0812 	mov.w	r8, #18
 80012fe:	f8cd 8010 	str.w	r8, [sp, #16]
    GPIO_InitStruct.Pull = GPIO_PULLUP;
 8001302:	2701      	movs	r7, #1
 8001304:	9705      	str	r7, [sp, #20]
    GPIO_InitStruct.Alternate = GPIO_AF4_I2C3;
 8001306:	2604      	movs	r6, #4
 8001308:	9607      	str	r6, [sp, #28]
    HAL_GPIO_Init(I2C3_SDA_GPIO_Port, &GPIO_InitStruct);
 800130a:	a903      	add	r1, sp, #12
 800130c:	480e      	ldr	r0, [pc, #56]	@ (8001348 <HAL_I2C_MspInit+0xa0>)
 800130e:	f000 ff09 	bl	8002124 <HAL_GPIO_Init>
    GPIO_InitStruct.Pin = I2C3_SCL_Pin;
 8001312:	f44f 7380 	mov.w	r3, #256	@ 0x100
 8001316:	9303      	str	r3, [sp, #12]
    GPIO_InitStruct.Mode = GPIO_MODE_AF_OD;
 8001318:	f8cd 8010 	str.w	r8, [sp, #16]
    GPIO_InitStruct.Pull = GPIO_PULLUP;
 800131c:	9705      	str	r7, [sp, #20]
    GPIO_InitStruct.Speed = GPIO_SPEED_FREQ_LOW;
 800131e:	9506      	str	r5, [sp, #24]
    GPIO_InitStruct.Alternate = GPIO_AF4_I2C3;
 8001320:	9607      	str	r6, [sp, #28]
    HAL_GPIO_Init(I2C3_SCL_GPIO_Port, &GPIO_InitStruct);
 8001322:	a903      	add	r1, sp, #12
 8001324:	4809      	ldr	r0, [pc, #36]	@ (800134c <HAL_I2C_MspInit+0xa4>)
 8001326:	f000 fefd 	bl	8002124 <HAL_GPIO_Init>
    __HAL_RCC_I2C3_CLK_ENABLE();
 800132a:	9502      	str	r5, [sp, #8]
 800132c:	6c23      	ldr	r3, [r4, #64]	@ 0x40
 800132e:	f443 0300 	orr.w	r3, r3, #8388608	@ 0x800000
 8001332:	6423      	str	r3, [r4, #64]	@ 0x40
 8001334:	6c23      	ldr	r3, [r4, #64]	@ 0x40
 8001336:	f403 0300 	and.w	r3, r3, #8388608	@ 0x800000
 800133a:	9302      	str	r3, [sp, #8]
 800133c:	9b02      	ldr	r3, [sp, #8]
}
 800133e:	e7c0      	b.n	80012c2 <HAL_I2C_MspInit+0x1a>
 8001340:	40005c00 	.word	0x40005c00
 8001344:	40023800 	.word	0x40023800
 8001348:	40020800 	.word	0x40020800
 800134c:	40020000 	.word	0x40020000

08001350 <HAL_LTDC_MspInit>:
{
 8001350:	e92d 47f0 	stmdb	sp!, {r4, r5, r6, r7, r8, r9, sl, lr}
 8001354:	b08c      	sub	sp, #48	@ 0x30
  GPIO_InitTypeDef GPIO_InitStruct = {0};
 8001356:	2300      	movs	r3, #0
 8001358:	9307      	str	r3, [sp, #28]
 800135a:	9308      	str	r3, [sp, #32]
 800135c:	9309      	str	r3, [sp, #36]	@ 0x24
 800135e:	930a      	str	r3, [sp, #40]	@ 0x28
 8001360:	930b      	str	r3, [sp, #44]	@ 0x2c
  if(hltdc->Instance==LTDC)
 8001362:	6802      	ldr	r2, [r0, #0]
 8001364:	4b6a      	ldr	r3, [pc, #424]	@ (8001510 <HAL_LTDC_MspInit+0x1c0>)
 8001366:	429a      	cmp	r2, r3
 8001368:	d002      	beq.n	8001370 <HAL_LTDC_MspInit+0x20>
}
 800136a:	b00c      	add	sp, #48	@ 0x30
 800136c:	e8bd 87f0 	ldmia.w	sp!, {r4, r5, r6, r7, r8, r9, sl, pc}
    __HAL_RCC_LTDC_CLK_ENABLE();
 8001370:	2400      	movs	r4, #0
 8001372:	9400      	str	r4, [sp, #0]
 8001374:	f503 4350 	add.w	r3, r3, #53248	@ 0xd000
 8001378:	6c5a      	ldr	r2, [r3, #68]	@ 0x44
 800137a:	f042 6280 	orr.w	r2, r2, #67108864	@ 0x4000000
 800137e:	645a      	str	r2, [r3, #68]	@ 0x44
 8001380:	6c5a      	ldr	r2, [r3, #68]	@ 0x44
 8001382:	f002 6280 	and.w	r2, r2, #67108864	@ 0x4000000
 8001386:	9200      	str	r2, [sp, #0]
 8001388:	9a00      	ldr	r2, [sp, #0]
    __HAL_RCC_GPIOF_CLK_ENABLE();
 800138a:	9401      	str	r4, [sp, #4]
 800138c:	6b1a      	ldr	r2, [r3, #48]	@ 0x30
 800138e:	f042 0220 	orr.w	r2, r2, #32
 8001392:	631a      	str	r2, [r3, #48]	@ 0x30
 8001394:	6b1a      	ldr	r2, [r3, #48]	@ 0x30
 8001396:	f002 0220 	and.w	r2, r2, #32
 800139a:	9201      	str	r2, [sp, #4]
 800139c:	9a01      	ldr	r2, [sp, #4]
    __HAL_RCC_GPIOA_CLK_ENABLE();
 800139e:	9402      	str	r4, [sp, #8]
 80013a0:	6b1a      	ldr	r2, [r3, #48]	@ 0x30
 80013a2:	f042 0201 	orr.w	r2, r2, #1
 80013a6:	631a      	str	r2, [r3, #48]	@ 0x30
 80013a8:	6b1a      	ldr	r2, [r3, #48]	@ 0x30
 80013aa:	f002 0201 	and.w	r2, r2, #1
 80013ae:	9202      	str	r2, [sp, #8]
 80013b0:	9a02      	ldr	r2, [sp, #8]
    __HAL_RCC_GPIOB_CLK_ENABLE();
 80013b2:	9403      	str	r4, [sp, #12]
 80013b4:	6b1a      	ldr	r2, [r3, #48]	@ 0x30
 80013b6:	f042 0202 	orr.w	r2, r2, #2
 80013ba:	631a      	str	r2, [r3, #48]	@ 0x30
 80013bc:	6b1a      	ldr	r2, [r3, #48]	@ 0x30
 80013be:	f002 0202 	and.w	r2, r2, #2
 80013c2:	9203      	str	r2, [sp, #12]
 80013c4:	9a03      	ldr	r2, [sp, #12]
    __HAL_RCC_GPIOG_CLK_ENABLE();
 80013c6:	9404      	str	r4, [sp, #16]
 80013c8:	6b1a      	ldr	r2, [r3, #48]	@ 0x30
 80013ca:	f042 0240 	orr.w	r2, r2, #64	@ 0x40
 80013ce:	631a      	str	r2, [r3, #48]	@ 0x30
 80013d0:	6b1a      	ldr	r2, [r3, #48]	@ 0x30
 80013d2:	f002 0240 	and.w	r2, r2, #64	@ 0x40
 80013d6:	9204      	str	r2, [sp, #16]
 80013d8:	9a04      	ldr	r2, [sp, #16]
    __HAL_RCC_GPIOC_CLK_ENABLE();
 80013da:	9405      	str	r4, [sp, #20]
 80013dc:	6b1a      	ldr	r2, [r3, #48]	@ 0x30
 80013de:	f042 0204 	orr.w	r2, r2, #4
 80013e2:	631a      	str	r2, [r3, #48]	@ 0x30
 80013e4:	6b1a      	ldr	r2, [r3, #48]	@ 0x30
 80013e6:	f002 0204 	and.w	r2, r2, #4
 80013ea:	9205      	str	r2, [sp, #20]
 80013ec:	9a05      	ldr	r2, [sp, #20]
    __HAL_RCC_GPIOD_CLK_ENABLE();
 80013ee:	9406      	str	r4, [sp, #24]
 80013f0:	6b1a      	ldr	r2, [r3, #48]	@ 0x30
 80013f2:	f042 0208 	orr.w	r2, r2, #8
 80013f6:	631a      	str	r2, [r3, #48]	@ 0x30
 80013f8:	6b1b      	ldr	r3, [r3, #48]	@ 0x30
 80013fa:	f003 0308 	and.w	r3, r3, #8
 80013fe:	9306      	str	r3, [sp, #24]
 8001400:	9b06      	ldr	r3, [sp, #24]
    GPIO_InitStruct.Pin = ENABLE_Pin;
 8001402:	f44f 6a80 	mov.w	sl, #1024	@ 0x400
 8001406:	f8cd a01c 	str.w	sl, [sp, #28]
    GPIO_InitStruct.Mode = GPIO_MODE_AF_PP;
 800140a:	2502      	movs	r5, #2
 800140c:	9508      	str	r5, [sp, #32]
    GPIO_InitStruct.Speed = GPIO_SPEED_FREQ_HIGH;
 800140e:	950a      	str	r5, [sp, #40]	@ 0x28
    GPIO_InitStruct.Alternate = GPIO_AF14_LTDC;
 8001410:	260e      	movs	r6, #14
 8001412:	960b      	str	r6, [sp, #44]	@ 0x2c
    HAL_GPIO_Init(ENABLE_GPIO_Port, &GPIO_InitStruct);
 8001414:	a907      	add	r1, sp, #28
 8001416:	483f      	ldr	r0, [pc, #252]	@ (8001514 <HAL_LTDC_MspInit+0x1c4>)
 8001418:	f000 fe84 	bl	8002124 <HAL_GPIO_Init>
    GPIO_InitStruct.Pin = B5_Pin|VSYNC_Pin|G2_Pin|R4_Pin
 800141c:	f641 0358 	movw	r3, #6232	@ 0x1858
 8001420:	9307      	str	r3, [sp, #28]
    GPIO_InitStruct.Mode = GPIO_MODE_AF_PP;
 8001422:	9508      	str	r5, [sp, #32]
    GPIO_InitStruct.Pull = GPIO_NOPULL;
 8001424:	9409      	str	r4, [sp, #36]	@ 0x24
    GPIO_InitStruct.Speed = GPIO_SPEED_FREQ_HIGH;
 8001426:	950a      	str	r5, [sp, #40]	@ 0x28
    GPIO_InitStruct.Alternate = GPIO_AF14_LTDC;
 8001428:	960b      	str	r6, [sp, #44]	@ 0x2c
    HAL_GPIO_Init(GPIOA, &GPIO_InitStruct);
 800142a:	a907      	add	r1, sp, #28
 800142c:	483a      	ldr	r0, [pc, #232]	@ (8001518 <HAL_LTDC_MspInit+0x1c8>)
 800142e:	f000 fe79 	bl	8002124 <HAL_GPIO_Init>
    GPIO_InitStruct.Pin = R3_Pin|R6_Pin;
 8001432:	2303      	movs	r3, #3
 8001434:	9307      	str	r3, [sp, #28]
    GPIO_InitStruct.Mode = GPIO_MODE_AF_PP;
 8001436:	9508      	str	r5, [sp, #32]
    GPIO_InitStruct.Pull = GPIO_NOPULL;
 8001438:	9409      	str	r4, [sp, #36]	@ 0x24
    GPIO_InitStruct.Speed = GPIO_SPEED_FREQ_HIGH;
 800143a:	950a      	str	r5, [sp, #40]	@ 0x28
    GPIO_InitStruct.Alternate = GPIO_AF9_LTDC;
 800143c:	f04f 0809 	mov.w	r8, #9
 8001440:	f8cd 802c 	str.w	r8, [sp, #44]	@ 0x2c
    HAL_GPIO_Init(GPIOB, &GPIO_InitStruct);
 8001444:	4f35      	ldr	r7, [pc, #212]	@ (800151c <HAL_LTDC_MspInit+0x1cc>)
 8001446:	a907      	add	r1, sp, #28
 8001448:	4638      	mov	r0, r7
 800144a:	f000 fe6b 	bl	8002124 <HAL_GPIO_Init>
    GPIO_InitStruct.Pin = G4_Pin|G5_Pin|B6_Pin|B7_Pin;
 800144e:	f44f 6370 	mov.w	r3, #3840	@ 0xf00
 8001452:	9307      	str	r3, [sp, #28]
    GPIO_InitStruct.Mode = GPIO_MODE_AF_PP;
 8001454:	9508      	str	r5, [sp, #32]
    GPIO_InitStruct.Pull = GPIO_NOPULL;
 8001456:	9409      	str	r4, [sp, #36]	@ 0x24
    GPIO_InitStruct.Speed = GPIO_SPEED_FREQ_HIGH;
 8001458:	950a      	str	r5, [sp, #40]	@ 0x28
    GPIO_InitStruct.Alternate = GPIO_AF14_LTDC;
 800145a:	960b      	str	r6, [sp, #44]	@ 0x2c
    HAL_GPIO_Init(GPIOB, &GPIO_InitStruct);
 800145c:	a907      	add	r1, sp, #28
 800145e:	4638      	mov	r0, r7
 8001460:	f000 fe60 	bl	8002124 <HAL_GPIO_Init>
    GPIO_InitStruct.Pin = R7_Pin|DOTCLK_Pin|B3_Pin;
 8001464:	f44f 630c 	mov.w	r3, #2240	@ 0x8c0
 8001468:	9307      	str	r3, [sp, #28]
    GPIO_InitStruct.Mode = GPIO_MODE_AF_PP;
 800146a:	9508      	str	r5, [sp, #32]
    GPIO_InitStruct.Pull = GPIO_NOPULL;
 800146c:	9409      	str	r4, [sp, #36]	@ 0x24
    GPIO_InitStruct.Speed = GPIO_SPEED_FREQ_HIGH;
 800146e:	950a      	str	r5, [sp, #40]	@ 0x28
    GPIO_InitStruct.Alternate = GPIO_AF14_LTDC;
 8001470:	960b      	str	r6, [sp, #44]	@ 0x2c
    HAL_GPIO_Init(GPIOG, &GPIO_InitStruct);
 8001472:	f507 57a0 	add.w	r7, r7, #5120	@ 0x1400
 8001476:	a907      	add	r1, sp, #28
 8001478:	4638      	mov	r0, r7
 800147a:	f000 fe53 	bl	8002124 <HAL_GPIO_Init>
    GPIO_InitStruct.Pin = HSYNC_Pin|G6_Pin;
 800147e:	23c0      	movs	r3, #192	@ 0xc0
 8001480:	9307      	str	r3, [sp, #28]
    GPIO_InitStruct.Mode = GPIO_MODE_AF_PP;
 8001482:	9508      	str	r5, [sp, #32]
    GPIO_InitStruct.Pull = GPIO_NOPULL;
 8001484:	9409      	str	r4, [sp, #36]	@ 0x24
    GPIO_InitStruct.Speed = GPIO_SPEED_FREQ_HIGH;
 8001486:	950a      	str	r5, [sp, #40]	@ 0x28
    GPIO_InitStruct.Alternate = GPIO_AF14_LTDC;
 8001488:	960b      	str	r6, [sp, #44]	@ 0x2c
    HAL_GPIO_Init(GPIOC, &GPIO_InitStruct);
 800148a:	f8df 9094 	ldr.w	r9, [pc, #148]	@ 8001520 <HAL_LTDC_MspInit+0x1d0>
 800148e:	a907      	add	r1, sp, #28
 8001490:	4648      	mov	r0, r9
 8001492:	f000 fe47 	bl	8002124 <HAL_GPIO_Init>
    GPIO_InitStruct.Pin = R2_Pin;
 8001496:	f8cd a01c 	str.w	sl, [sp, #28]
    GPIO_InitStruct.Mode = GPIO_MODE_AF_PP;
 800149a:	9508      	str	r5, [sp, #32]
    GPIO_InitStruct.Pull = GPIO_NOPULL;
 800149c:	9409      	str	r4, [sp, #36]	@ 0x24
    GPIO_InitStruct.Speed = GPIO_SPEED_FREQ_LOW;
 800149e:	940a      	str	r4, [sp, #40]	@ 0x28
    GPIO_InitStruct.Alternate = GPIO_AF14_LTDC;
 80014a0:	960b      	str	r6, [sp, #44]	@ 0x2c
    HAL_GPIO_Init(R2_GPIO_Port, &GPIO_InitStruct);
 80014a2:	a907      	add	r1, sp, #28
 80014a4:	4648      	mov	r0, r9
 80014a6:	f000 fe3d 	bl	8002124 <HAL_GPIO_Init>
    GPIO_InitStruct.Pin = G7_Pin;
 80014aa:	2308      	movs	r3, #8
 80014ac:	9307      	str	r3, [sp, #28]
    GPIO_InitStruct.Mode = GPIO_MODE_AF_PP;
 80014ae:	9508      	str	r5, [sp, #32]
    GPIO_InitStruct.Pull = GPIO_NOPULL;
 80014b0:	9409      	str	r4, [sp, #36]	@ 0x24
    GPIO_InitStruct.Speed = GPIO_SPEED_FREQ_HIGH;
 80014b2:	950a      	str	r5, [sp, #40]	@ 0x28
    GPIO_InitStruct.Alternate = GPIO_AF14_LTDC;
 80014b4:	960b      	str	r6, [sp, #44]	@ 0x2c
    HAL_GPIO_Init(G7_GPIO_Port, &GPIO_InitStruct);
 80014b6:	f509 6980 	add.w	r9, r9, #1024	@ 0x400
 80014ba:	a907      	add	r1, sp, #28
 80014bc:	4648      	mov	r0, r9
 80014be:	f000 fe31 	bl	8002124 <HAL_GPIO_Init>
    GPIO_InitStruct.Pin = B2_Pin;
 80014c2:	2340      	movs	r3, #64	@ 0x40
 80014c4:	9307      	str	r3, [sp, #28]
    GPIO_InitStruct.Mode = GPIO_MODE_AF_PP;
 80014c6:	9508      	str	r5, [sp, #32]
    GPIO_InitStruct.Pull = GPIO_NOPULL;
 80014c8:	9409      	str	r4, [sp, #36]	@ 0x24
    GPIO_InitStruct.Speed = GPIO_SPEED_FREQ_LOW;
 80014ca:	940a      	str	r4, [sp, #40]	@ 0x28
    GPIO_InitStruct.Alternate = GPIO_AF14_LTDC;
 80014cc:	960b      	str	r6, [sp, #44]	@ 0x2c
    HAL_GPIO_Init(B2_GPIO_Port, &GPIO_InitStruct);
 80014ce:	a907      	add	r1, sp, #28
 80014d0:	4648      	mov	r0, r9
 80014d2:	f000 fe27 	bl	8002124 <HAL_GPIO_Init>
    GPIO_InitStruct.Pin = G3_Pin|B4_Pin;
 80014d6:	f44f 53a0 	mov.w	r3, #5120	@ 0x1400
 80014da:	9307      	str	r3, [sp, #28]
    GPIO_InitStruct.Mode = GPIO_MODE_AF_PP;
 80014dc:	9508      	str	r5, [sp, #32]
    GPIO_InitStruct.Pull = GPIO_NOPULL;
 80014de:	9409      	str	r4, [sp, #36]	@ 0x24
    GPIO_InitStruct.Speed = GPIO_SPEED_FREQ_HIGH;
 80014e0:	950a      	str	r5, [sp, #40]	@ 0x28
    GPIO_InitStruct.Alternate = GPIO_AF9_LTDC;
 80014e2:	f8cd 802c 	str.w	r8, [sp, #44]	@ 0x2c
    HAL_GPIO_Init(GPIOG, &GPIO_InitStruct);
 80014e6:	a907      	add	r1, sp, #28
 80014e8:	4638      	mov	r0, r7
 80014ea:	f000 fe1b 	bl	8002124 <HAL_GPIO_Init>
    HAL_NVIC_SetPriority(LTDC_IRQn, 0, 0);
 80014ee:	4622      	mov	r2, r4
 80014f0:	4621      	mov	r1, r4
 80014f2:	2058      	movs	r0, #88	@ 0x58
 80014f4:	f000 fcd6 	bl	8001ea4 <HAL_NVIC_SetPriority>
    HAL_NVIC_EnableIRQ(LTDC_IRQn);
 80014f8:	2058      	movs	r0, #88	@ 0x58
 80014fa:	f000 fce3 	bl	8001ec4 <HAL_NVIC_EnableIRQ>
    HAL_NVIC_SetPriority(LTDC_ER_IRQn, 0, 0);
 80014fe:	4622      	mov	r2, r4
 8001500:	4621      	mov	r1, r4
 8001502:	2059      	movs	r0, #89	@ 0x59
 8001504:	f000 fcce 	bl	8001ea4 <HAL_NVIC_SetPriority>
    HAL_NVIC_EnableIRQ(LTDC_ER_IRQn);
 8001508:	2059      	movs	r0, #89	@ 0x59
 800150a:	f000 fcdb 	bl	8001ec4 <HAL_NVIC_EnableIRQ>
}
 800150e:	e72c      	b.n	800136a <HAL_LTDC_MspInit+0x1a>
 8001510:	40016800 	.word	0x40016800
 8001514:	40021400 	.word	0x40021400
 8001518:	40020000 	.word	0x40020000
 800151c:	40020400 	.word	0x40020400
 8001520:	40020800 	.word	0x40020800

08001524 <HAL_SPI_MspInit>:
{
 8001524:	b500      	push	{lr}
 8001526:	b089      	sub	sp, #36	@ 0x24
  GPIO_InitTypeDef GPIO_InitStruct = {0};
 8001528:	2300      	movs	r3, #0
 800152a:	9303      	str	r3, [sp, #12]
 800152c:	9304      	str	r3, [sp, #16]
 800152e:	9305      	str	r3, [sp, #20]
 8001530:	9306      	str	r3, [sp, #24]
 8001532:	9307      	str	r3, [sp, #28]
  if(hspi->Instance==SPI5)
 8001534:	6802      	ldr	r2, [r0, #0]
 8001536:	4b14      	ldr	r3, [pc, #80]	@ (8001588 <HAL_SPI_MspInit+0x64>)
 8001538:	429a      	cmp	r2, r3
 800153a:	d002      	beq.n	8001542 <HAL_SPI_MspInit+0x1e>
}
 800153c:	b009      	add	sp, #36	@ 0x24
 800153e:	f85d fb04 	ldr.w	pc, [sp], #4
    __HAL_RCC_SPI5_CLK_ENABLE();
 8001542:	2100      	movs	r1, #0
 8001544:	9101      	str	r1, [sp, #4]
 8001546:	f503 4368 	add.w	r3, r3, #59392	@ 0xe800
 800154a:	6c5a      	ldr	r2, [r3, #68]	@ 0x44
 800154c:	f442 1280 	orr.w	r2, r2, #1048576	@ 0x100000
 8001550:	645a      	str	r2, [r3, #68]	@ 0x44
 8001552:	6c5a      	ldr	r2, [r3, #68]	@ 0x44
 8001554:	f402 1280 	and.w	r2, r2, #1048576	@ 0x100000
 8001558:	9201      	str	r2, [sp, #4]
 800155a:	9a01      	ldr	r2, [sp, #4]
    __HAL_RCC_GPIOF_CLK_ENABLE();
 800155c:	9102      	str	r1, [sp, #8]
 800155e:	6b1a      	ldr	r2, [r3, #48]	@ 0x30
 8001560:	f042 0220 	orr.w	r2, r2, #32
 8001564:	631a      	str	r2, [r3, #48]	@ 0x30
 8001566:	6b1b      	ldr	r3, [r3, #48]	@ 0x30
 8001568:	f003 0320 	and.w	r3, r3, #32
 800156c:	9302      	str	r3, [sp, #8]
 800156e:	9b02      	ldr	r3, [sp, #8]
    GPIO_InitStruct.Pin = SPI5_SCK_Pin|SPI5_MISO_Pin|SPI5_MOSI_Pin;
 8001570:	f44f 7360 	mov.w	r3, #896	@ 0x380
 8001574:	9303      	str	r3, [sp, #12]
    GPIO_InitStruct.Mode = GPIO_MODE_AF_PP;
 8001576:	2302      	movs	r3, #2
 8001578:	9304      	str	r3, [sp, #16]
    GPIO_InitStruct.Alternate = GPIO_AF5_SPI5;
 800157a:	2305      	movs	r3, #5
 800157c:	9307      	str	r3, [sp, #28]
    HAL_GPIO_Init(GPIOF, &GPIO_InitStruct);
 800157e:	a903      	add	r1, sp, #12
 8001580:	4802      	ldr	r0, [pc, #8]	@ (800158c <HAL_SPI_MspInit+0x68>)
 8001582:	f000 fdcf 	bl	8002124 <HAL_GPIO_Init>
}
 8001586:	e7d9      	b.n	800153c <HAL_SPI_MspInit+0x18>
 8001588:	40015000 	.word	0x40015000
 800158c:	40021400 	.word	0x40021400

08001590 <HAL_TIM_Base_MspInit>:
  if(htim_base->Instance==TIM1)
 8001590:	6802      	ldr	r2, [r0, #0]
 8001592:	4b09      	ldr	r3, [pc, #36]	@ (80015b8 <HAL_TIM_Base_MspInit+0x28>)
 8001594:	429a      	cmp	r2, r3
 8001596:	d000      	beq.n	800159a <HAL_TIM_Base_MspInit+0xa>
 8001598:	4770      	bx	lr
{
 800159a:	b082      	sub	sp, #8
    __HAL_RCC_TIM1_CLK_ENABLE();
 800159c:	2300      	movs	r3, #0
 800159e:	9301      	str	r3, [sp, #4]
 80015a0:	4b06      	ldr	r3, [pc, #24]	@ (80015bc <HAL_TIM_Base_MspInit+0x2c>)
 80015a2:	6c5a      	ldr	r2, [r3, #68]	@ 0x44
 80015a4:	f042 0201 	orr.w	r2, r2, #1
 80015a8:	645a      	str	r2, [r3, #68]	@ 0x44
 80015aa:	6c5b      	ldr	r3, [r3, #68]	@ 0x44
 80015ac:	f003 0301 	and.w	r3, r3, #1
 80015b0:	9301      	str	r3, [sp, #4]
 80015b2:	9b01      	ldr	r3, [sp, #4]
}
 80015b4:	b002      	add	sp, #8
 80015b6:	4770      	bx	lr
 80015b8:	40010000 	.word	0x40010000
 80015bc:	40023800 	.word	0x40023800

080015c0 <HAL_UART_MspInit>:
{
 80015c0:	b530      	push	{r4, r5, lr}
 80015c2:	b089      	sub	sp, #36	@ 0x24
  GPIO_InitTypeDef GPIO_InitStruct = {0};
 80015c4:	2300      	movs	r3, #0
 80015c6:	9303      	str	r3, [sp, #12]
 80015c8:	9304      	str	r3, [sp, #16]
 80015ca:	9305      	str	r3, [sp, #20]
 80015cc:	9306      	str	r3, [sp, #24]
 80015ce:	9307      	str	r3, [sp, #28]
  if(huart->Instance==USART1)
 80015d0:	6802      	ldr	r2, [r0, #0]
 80015d2:	f103 4380 	add.w	r3, r3, #1073741824	@ 0x40000000
 80015d6:	f503 3388 	add.w	r3, r3, #69632	@ 0x11000
 80015da:	429a      	cmp	r2, r3
 80015dc:	d001      	beq.n	80015e2 <HAL_UART_MspInit+0x22>
}
 80015de:	b009      	add	sp, #36	@ 0x24
 80015e0:	bd30      	pop	{r4, r5, pc}
 80015e2:	4604      	mov	r4, r0
    __HAL_RCC_USART1_CLK_ENABLE();
 80015e4:	2500      	movs	r5, #0
 80015e6:	9501      	str	r5, [sp, #4]
 80015e8:	f503 3394 	add.w	r3, r3, #75776	@ 0x12800
 80015ec:	6c5a      	ldr	r2, [r3, #68]	@ 0x44
 80015ee:	f042 0210 	orr.w	r2, r2, #16
 80015f2:	645a      	str	r2, [r3, #68]	@ 0x44
 80015f4:	6c5a      	ldr	r2, [r3, #68]	@ 0x44
 80015f6:	f002 0210 	and.w	r2, r2, #16
 80015fa:	9201      	str	r2, [sp, #4]
 80015fc:	9a01      	ldr	r2, [sp, #4]
    __HAL_RCC_GPIOA_CLK_ENABLE();
 80015fe:	9502      	str	r5, [sp, #8]
 8001600:	6b1a      	ldr	r2, [r3, #48]	@ 0x30
 8001602:	f042 0201 	orr.w	r2, r2, #1
 8001606:	631a      	str	r2, [r3, #48]	@ 0x30
 8001608:	6b1b      	ldr	r3, [r3, #48]	@ 0x30
 800160a:	f003 0301 	and.w	r3, r3, #1
 800160e:	9302      	str	r3, [sp, #8]
 8001610:	9b02      	ldr	r3, [sp, #8]
    GPIO_InitStruct.Pin = STLINK_RX_Pin|STLINK_TX_Pin;
 8001612:	f44f 63c0 	mov.w	r3, #1536	@ 0x600
 8001616:	9303      	str	r3, [sp, #12]
    GPIO_InitStruct.Mode = GPIO_MODE_AF_PP;
 8001618:	2302      	movs	r3, #2
 800161a:	9304      	str	r3, [sp, #16]
    GPIO_InitStruct.Speed = GPIO_SPEED_FREQ_VERY_HIGH;
 800161c:	2303      	movs	r3, #3
 800161e:	9306      	str	r3, [sp, #24]
    GPIO_InitStruct.Alternate = GPIO_AF7_USART1;
 8001620:	2307      	movs	r3, #7
 8001622:	9307      	str	r3, [sp, #28]
    HAL_GPIO_Init(GPIOA, &GPIO_InitStruct);
 8001624:	a903      	add	r1, sp, #12
 8001626:	480f      	ldr	r0, [pc, #60]	@ (8001664 <HAL_UART_MspInit+0xa4>)
 8001628:	f000 fd7c 	bl	8002124 <HAL_GPIO_Init>
    hdma_usart1_rx.Instance = DMA2_Stream2;
 800162c:	480e      	ldr	r0, [pc, #56]	@ (8001668 <HAL_UART_MspInit+0xa8>)
 800162e:	4b0f      	ldr	r3, [pc, #60]	@ (800166c <HAL_UART_MspInit+0xac>)
 8001630:	6003      	str	r3, [r0, #0]
    hdma_usart1_rx.Init.Channel = DMA_CHANNEL_4;
 8001632:	f04f 6300 	mov.w	r3, #134217728	@ 0x8000000
 8001636:	6043      	str	r3, [r0, #4]
    hdma_usart1_rx.Init.Direction = DMA_PERIPH_TO_MEMORY;
 8001638:	6085      	str	r5, [r0, #8]
    hdma_usart1_rx.Init.PeriphInc = DMA_PINC_DISABLE;
 800163a:	60c5      	str	r5, [r0, #12]
    hdma_usart1_rx.Init.MemInc = DMA_MINC_ENABLE;
 800163c:	f44f 6380 	mov.w	r3, #1024	@ 0x400
 8001640:	6103      	str	r3, [r0, #16]
    hdma_usart1_rx.Init.PeriphDataAlignment = DMA_PDATAALIGN_BYTE;
 8001642:	6145      	str	r5, [r0, #20]
    hdma_usart1_rx.Init.MemDataAlignment = DMA_MDATAALIGN_BYTE;
 8001644:	6185      	str	r5, [r0, #24]
    hdma_usart1_rx.Init.Mode = DMA_CIRCULAR;
 8001646:	f44f 7380 	mov.w	r3, #256	@ 0x100
 800164a:	61c3      	str	r3, [r0, #28]
    hdma_usart1_rx.Init.Priority = DMA_PRIORITY_LOW;
 800164c:	6205      	str	r5, [r0, #32]
    hdma_usart1_rx.Init.FIFOMode = DMA_FIFOMODE_DISABLE;
 800164e:	6245      	str	r5, [r0, #36]	@ 0x24
    if (HAL_DMA_Init(&hdma_usart1_rx) != HAL_OK)
 8001650:	f000 fccc 	bl	8001fec <HAL_DMA_Init>
 8001654:	b918      	cbnz	r0, 800165e <HAL_UART_MspInit+0x9e>
    __HAL_LINKDMA(huart,hdmarx,hdma_usart1_rx);
 8001656:	4b04      	ldr	r3, [pc, #16]	@ (8001668 <HAL_UART_MspInit+0xa8>)
 8001658:	63e3      	str	r3, [r4, #60]	@ 0x3c
 800165a:	639c      	str	r4, [r3, #56]	@ 0x38
}
 800165c:	e7bf      	b.n	80015de <HAL_UART_MspInit+0x1e>
      Error_Handler();
 800165e:	f7ff fb0b 	bl	8000c78 <Error_Handler>
 8001662:	e7f8      	b.n	8001656 <HAL_UART_MspInit+0x96>
 8001664:	40020000 	.word	0x40020000
 8001668:	200002c0 	.word	0x200002c0
 800166c:	40026440 	.word	0x40026440

08001670 <HAL_SDRAM_MspInit>:

void HAL_SDRAM_MspInit(SDRAM_HandleTypeDef* hsdram){
 8001670:	b508      	push	{r3, lr}
  /* USER CODE BEGIN SDRAM_MspInit 0 */

  /* USER CODE END SDRAM_MspInit 0 */
  HAL_FMC_MspInit();
 8001672:	f7ff fd1b 	bl	80010ac <HAL_FMC_MspInit>
  /* USER CODE BEGIN SDRAM_MspInit 1 */

  /* USER CODE END SDRAM_MspInit 1 */
}
 8001676:	bd08      	pop	{r3, pc}

08001678 <HAL_InitTick>:
  *         reset by HAL_Init() or at any time when clock is configured, by HAL_RCC_ClockConfig().
  * @param  TickPriority: Tick interrupt priority.
  * @retval HAL status
  */
HAL_StatusTypeDef HAL_InitTick(uint32_t TickPriority)
{
 8001678:	b530      	push	{r4, r5, lr}
 800167a:	b089      	sub	sp, #36	@ 0x24
 800167c:	4604      	mov	r4, r0
  uint32_t              uwPrescalerValue = 0U;
  uint32_t              pFLatency;
  HAL_StatusTypeDef     status;

  /* Enable TIM6 clock */
  __HAL_RCC_TIM6_CLK_ENABLE();
 800167e:	2300      	movs	r3, #0
 8001680:	9301      	str	r3, [sp, #4]
 8001682:	4b21      	ldr	r3, [pc, #132]	@ (8001708 <HAL_InitTick+0x90>)
 8001684:	6c1a      	ldr	r2, [r3, #64]	@ 0x40
 8001686:	f042 0210 	orr.w	r2, r2, #16
 800168a:	641a      	str	r2, [r3, #64]	@ 0x40
 800168c:	6c1b      	ldr	r3, [r3, #64]	@ 0x40
 800168e:	f003 0310 	and.w	r3, r3, #16
 8001692:	9301      	str	r3, [sp, #4]
 8001694:	9b01      	ldr	r3, [sp, #4]
  /* Get clock configuration */
  HAL_RCC_GetClockConfig(&clkconfig, &pFLatency);
 8001696:	a902      	add	r1, sp, #8
 8001698:	a803      	add	r0, sp, #12
 800169a:	f001 f993 	bl	80029c4 <HAL_RCC_GetClockConfig>
  /* Get APB1 prescaler */
  uwAPB1Prescaler = clkconfig.APB1CLKDivider;
 800169e:	9b06      	ldr	r3, [sp, #24]
  /* Compute TIM6 clock */
  if (uwAPB1Prescaler == RCC_HCLK_DIV1)
 80016a0:	b9cb      	cbnz	r3, 80016d6 <HAL_InitTick+0x5e>
  {
    uwTimclock = HAL_RCC_GetPCLK1Freq();
 80016a2:	f001 f96f 	bl	8002984 <HAL_RCC_GetPCLK1Freq>
 80016a6:	4603      	mov	r3, r0
  {
    uwTimclock = 2UL * HAL_RCC_GetPCLK1Freq();
  }

  /* Compute the prescaler value to have TIM6 counter clock equal to 1MHz */
  uwPrescalerValue = (uint32_t) ((uwTimclock / 1000000U) - 1U);
 80016a8:	4a18      	ldr	r2, [pc, #96]	@ (800170c <HAL_InitTick+0x94>)
 80016aa:	fba2 2303 	umull	r2, r3, r2, r3
 80016ae:	0c9b      	lsrs	r3, r3, #18
 80016b0:	3b01      	subs	r3, #1

  /* Initialize TIM6 */
  htim6.Instance = TIM6;
 80016b2:	4817      	ldr	r0, [pc, #92]	@ (8001710 <HAL_InitTick+0x98>)
 80016b4:	4a17      	ldr	r2, [pc, #92]	@ (8001714 <HAL_InitTick+0x9c>)
 80016b6:	6002      	str	r2, [r0, #0]
  + Period = [(TIM6CLK/1000) - 1]. to have a (1/1000) s time base.
  + Prescaler = (uwTimclock/1000000 - 1) to have a 1MHz counter clock.
  + ClockDivision = 0
  + Counter direction = Up
  */
  htim6.Init.Period = (1000000U / 1000U) - 1U;
 80016b8:	f240 32e7 	movw	r2, #999	@ 0x3e7
 80016bc:	60c2      	str	r2, [r0, #12]
  htim6.Init.Prescaler = uwPrescalerValue;
 80016be:	6043      	str	r3, [r0, #4]
  htim6.Init.ClockDivision = 0;
 80016c0:	2300      	movs	r3, #0
 80016c2:	6103      	str	r3, [r0, #16]
  htim6.Init.CounterMode = TIM_COUNTERMODE_UP;
 80016c4:	6083      	str	r3, [r0, #8]
  htim6.Init.AutoReloadPreload = TIM_AUTORELOAD_PRELOAD_DISABLE;
 80016c6:	6183      	str	r3, [r0, #24]

  status = HAL_TIM_Base_Init(&htim6);
 80016c8:	f001 fbac 	bl	8002e24 <HAL_TIM_Base_Init>
  if (status == HAL_OK)
 80016cc:	4605      	mov	r5, r0
 80016ce:	b130      	cbz	r0, 80016de <HAL_InitTick+0x66>
    }
  }

 /* Return function status */
  return status;
}
 80016d0:	4628      	mov	r0, r5
 80016d2:	b009      	add	sp, #36	@ 0x24
 80016d4:	bd30      	pop	{r4, r5, pc}
    uwTimclock = 2UL * HAL_RCC_GetPCLK1Freq();
 80016d6:	f001 f955 	bl	8002984 <HAL_RCC_GetPCLK1Freq>
 80016da:	0043      	lsls	r3, r0, #1
 80016dc:	e7e4      	b.n	80016a8 <HAL_InitTick+0x30>
    status = HAL_TIM_Base_Start_IT(&htim6);
 80016de:	480c      	ldr	r0, [pc, #48]	@ (8001710 <HAL_InitTick+0x98>)
 80016e0:	f001 fa3c 	bl	8002b5c <HAL_TIM_Base_Start_IT>
    if (status == HAL_OK)
 80016e4:	4605      	mov	r5, r0
 80016e6:	2800      	cmp	r0, #0
 80016e8:	d1f2      	bne.n	80016d0 <HAL_InitTick+0x58>
        HAL_NVIC_EnableIRQ(TIM6_DAC_IRQn);
 80016ea:	2036      	movs	r0, #54	@ 0x36
 80016ec:	f000 fbea 	bl	8001ec4 <HAL_NVIC_EnableIRQ>
      if (TickPriority < (1UL << __NVIC_PRIO_BITS))
 80016f0:	2c0f      	cmp	r4, #15
 80016f2:	d901      	bls.n	80016f8 <HAL_InitTick+0x80>
        status = HAL_ERROR;
 80016f4:	2501      	movs	r5, #1
 80016f6:	e7eb      	b.n	80016d0 <HAL_InitTick+0x58>
        HAL_NVIC_SetPriority(TIM6_DAC_IRQn, TickPriority, 0U);
 80016f8:	2200      	movs	r2, #0
 80016fa:	4621      	mov	r1, r4
 80016fc:	2036      	movs	r0, #54	@ 0x36
 80016fe:	f000 fbd1 	bl	8001ea4 <HAL_NVIC_SetPriority>
        uwTickPrio = TickPriority;
 8001702:	4b05      	ldr	r3, [pc, #20]	@ (8001718 <HAL_InitTick+0xa0>)
 8001704:	601c      	str	r4, [r3, #0]
 8001706:	e7e3      	b.n	80016d0 <HAL_InitTick+0x58>
 8001708:	40023800 	.word	0x40023800
 800170c:	431bde83 	.word	0x431bde83
 8001710:	200005b8 	.word	0x200005b8
 8001714:	40001000 	.word	0x40001000
 8001718:	20000008 	.word	0x20000008

0800171c <NMI_Handler>:
{
  /* USER CODE BEGIN NonMaskableInt_IRQn 0 */

  /* USER CODE END NonMaskableInt_IRQn 0 */
  /* USER CODE BEGIN NonMaskableInt_IRQn 1 */
   while (1)
 800171c:	e7fe      	b.n	800171c <NMI_Handler>

0800171e <HardFault_Handler>:
void HardFault_Handler(void)
{
  /* USER CODE BEGIN HardFault_IRQn 0 */

  /* USER CODE END HardFault_IRQn 0 */
  while (1)
 800171e:	e7fe      	b.n	800171e <HardFault_Handler>

08001720 <MemManage_Handler>:
void MemManage_Handler(void)
{
  /* USER CODE BEGIN MemoryManagement_IRQn 0 */

  /* USER CODE END MemoryManagement_IRQn 0 */
  while (1)
 8001720:	e7fe      	b.n	8001720 <MemManage_Handler>

08001722 <BusFault_Handler>:
void BusFault_Handler(void)
{
  /* USER CODE BEGIN BusFault_IRQn 0 */

  /* USER CODE END BusFault_IRQn 0 */
  while (1)
 8001722:	e7fe      	b.n	8001722 <BusFault_Handler>

08001724 <UsageFault_Handler>:
void UsageFault_Handler(void)
{
  /* USER CODE BEGIN UsageFault_IRQn 0 */

  /* USER CODE END UsageFault_IRQn 0 */
  while (1)
 8001724:	e7fe      	b.n	8001724 <UsageFault_Handler>

08001726 <SVC_Handler>:

  /* USER CODE END SVCall_IRQn 0 */
  /* USER CODE BEGIN SVCall_IRQn 1 */

  /* USER CODE END SVCall_IRQn 1 */
}
 8001726:	4770      	bx	lr

08001728 <DebugMon_Handler>:

  /* USER CODE END DebugMonitor_IRQn 0 */
  /* USER CODE BEGIN DebugMonitor_IRQn 1 */

  /* USER CODE END DebugMonitor_IRQn 1 */
}
 8001728:	4770      	bx	lr

0800172a <PendSV_Handler>:

  /* USER CODE END PendSV_IRQn 0 */
  /* USER CODE BEGIN PendSV_IRQn 1 */

  /* USER CODE END PendSV_IRQn 1 */
}
 800172a:	4770      	bx	lr

0800172c <SysTick_Handler>:
  /* USER CODE END SysTick_IRQn 0 */

  /* USER CODE BEGIN SysTick_IRQn 1 */

  /* USER CODE END SysTick_IRQn 1 */
}
 800172c:	4770      	bx	lr
	...

08001730 <TIM6_DAC_IRQHandler>:

/**
  * @brief This function handles TIM6 global interrupt, DAC1 and DAC2 underrun error interrupts.
  */
void TIM6_DAC_IRQHandler(void)
{
 8001730:	b508      	push	{r3, lr}
  /* USER CODE BEGIN TIM6_DAC_IRQn 0 */

  /* USER CODE END TIM6_DAC_IRQn 0 */
  HAL_TIM_IRQHandler(&htim6);
 8001732:	4802      	ldr	r0, [pc, #8]	@ (800173c <TIM6_DAC_IRQHandler+0xc>)
 8001734:	f001 fa5a 	bl	8002bec <HAL_TIM_IRQHandler>
  /* USER CODE BEGIN TIM6_DAC_IRQn 1 */

  /* USER CODE END TIM6_DAC_IRQn 1 */
}
 8001738:	bd08      	pop	{r3, pc}
 800173a:	bf00      	nop
 800173c:	200005b8 	.word	0x200005b8

08001740 <LTDC_IRQHandler>:

/**
  * @brief This function handles LTDC global interrupt.
  */
void LTDC_IRQHandler(void)
{
 8001740:	b508      	push	{r3, lr}
  /* USER CODE BEGIN LTDC_IRQn 0 */

  /* USER CODE END LTDC_IRQn 0 */
  HAL_LTDC_IRQHandler(&hltdc);
 8001742:	4802      	ldr	r0, [pc, #8]	@ (800174c <LTDC_IRQHandler+0xc>)
 8001744:	f001 f877 	bl	8002836 <HAL_LTDC_IRQHandler>
  /* USER CODE BEGIN LTDC_IRQn 1 */

  /* USER CODE END LTDC_IRQn 1 */
}
 8001748:	bd08      	pop	{r3, pc}
 800174a:	bf00      	nop
 800174c:	20000408 	.word	0x20000408

08001750 <LTDC_ER_IRQHandler>:

/**
  * @brief This function handles LTDC global error interrupt.
  */
void LTDC_ER_IRQHandler(void)
{
 8001750:	b508      	push	{r3, lr}
  /* USER CODE BEGIN LTDC_ER_IRQn 0 */

  /* USER CODE END LTDC_ER_IRQn 0 */
  HAL_LTDC_IRQHandler(&hltdc);
 8001752:	4802      	ldr	r0, [pc, #8]	@ (800175c <LTDC_ER_IRQHandler+0xc>)
 8001754:	f001 f86f 	bl	8002836 <HAL_LTDC_IRQHandler>
  /* USER CODE BEGIN LTDC_ER_IRQn 1 */

  /* USER CODE END LTDC_ER_IRQn 1 */
}
 8001758:	bd08      	pop	{r3, pc}
 800175a:	bf00      	nop
 800175c:	20000408 	.word	0x20000408

08001760 <_sbrk>:
 *
 * @param incr Memory size
 * @return Pointer to allocated memory
 */
void *_sbrk(ptrdiff_t incr)
{
 8001760:	b510      	push	{r4, lr}
 8001762:	4603      	mov	r3, r0
  extern uint8_t _end; /* Symbol defined in the linker script */
  extern uint8_t _estack; /* Symbol defined in the linker script */
  extern uint32_t _Min_Stack_Size; /* Symbol defined in the linker script */
  const uint32_t stack_limit = (uint32_t)&_estack - (uint32_t)&_Min_Stack_Size;
 8001764:	4a0c      	ldr	r2, [pc, #48]	@ (8001798 <_sbrk+0x38>)
 8001766:	490d      	ldr	r1, [pc, #52]	@ (800179c <_sbrk+0x3c>)
  const uint8_t *max_heap = (uint8_t *)stack_limit;
  uint8_t *prev_heap_end;

  /* Initialize heap end at first call */
  if (NULL == __sbrk_heap_end)
 8001768:	480d      	ldr	r0, [pc, #52]	@ (80017a0 <_sbrk+0x40>)
 800176a:	6800      	ldr	r0, [r0, #0]
 800176c:	b140      	cbz	r0, 8001780 <_sbrk+0x20>
  {
    __sbrk_heap_end = &_end;
  }

  /* Protect heap from growing into the reserved MSP stack */
  if (__sbrk_heap_end + incr > max_heap)
 800176e:	480c      	ldr	r0, [pc, #48]	@ (80017a0 <_sbrk+0x40>)
 8001770:	6800      	ldr	r0, [r0, #0]
 8001772:	4403      	add	r3, r0
 8001774:	1a52      	subs	r2, r2, r1
 8001776:	4293      	cmp	r3, r2
 8001778:	d806      	bhi.n	8001788 <_sbrk+0x28>
    errno = ENOMEM;
    return (void *)-1;
  }

  prev_heap_end = __sbrk_heap_end;
  __sbrk_heap_end += incr;
 800177a:	4a09      	ldr	r2, [pc, #36]	@ (80017a0 <_sbrk+0x40>)
 800177c:	6013      	str	r3, [r2, #0]

  return (void *)prev_heap_end;
}
 800177e:	bd10      	pop	{r4, pc}
    __sbrk_heap_end = &_end;
 8001780:	4807      	ldr	r0, [pc, #28]	@ (80017a0 <_sbrk+0x40>)
 8001782:	4c08      	ldr	r4, [pc, #32]	@ (80017a4 <_sbrk+0x44>)
 8001784:	6004      	str	r4, [r0, #0]
 8001786:	e7f2      	b.n	800176e <_sbrk+0xe>
    errno = ENOMEM;
 8001788:	f002 f86c 	bl	8003864 <__errno>
 800178c:	230c      	movs	r3, #12
 800178e:	6003      	str	r3, [r0, #0]
    return (void *)-1;
 8001790:	f04f 30ff 	mov.w	r0, #4294967295
 8001794:	e7f3      	b.n	800177e <_sbrk+0x1e>
 8001796:	bf00      	nop
 8001798:	20030000 	.word	0x20030000
 800179c:	00000400 	.word	0x00000400
 80017a0:	20000600 	.word	0x20000600
 80017a4:	20000750 	.word	0x20000750

080017a8 <SystemInit>:
  */
void SystemInit(void)
{
  /* FPU settings ------------------------------------------------------------*/
  #if (__FPU_PRESENT == 1) && (__FPU_USED == 1)
    SCB->CPACR |= ((3UL << 10*2)|(3UL << 11*2));  /* set CP10 and CP11 Full Access */
 80017a8:	4a03      	ldr	r2, [pc, #12]	@ (80017b8 <SystemInit+0x10>)
 80017aa:	f8d2 3088 	ldr.w	r3, [r2, #136]	@ 0x88
 80017ae:	f443 0370 	orr.w	r3, r3, #15728640	@ 0xf00000
 80017b2:	f8c2 3088 	str.w	r3, [r2, #136]	@ 0x88

  /* Configure the Vector Table location -------------------------------------*/
#if defined(USER_VECT_TAB_ADDRESS)
  SCB->VTOR = VECT_TAB_BASE_ADDRESS | VECT_TAB_OFFSET; /* Vector Table Relocation in Internal SRAM */
#endif /* USER_VECT_TAB_ADDRESS */
}
 80017b6:	4770      	bx	lr
 80017b8:	e000ed00 	.word	0xe000ed00

080017bc <Reset_Handler>:

    .section  .text.Reset_Handler
  .weak  Reset_Handler
  .type  Reset_Handler, %function
Reset_Handler: 
  ldr   sp, =_estack       /* set stack pointer */
 80017bc:	f8df d034 	ldr.w	sp, [pc, #52]	@ 80017f4 <LoopFillZerobss+0xe>

/* Call the clock system initialization function.*/
  bl  SystemInit   
 80017c0:	f7ff fff2 	bl	80017a8 <SystemInit>
 
/* Copy the data segment initializers from flash to SRAM */  
  ldr r0, =_sdata
 80017c4:	480c      	ldr	r0, [pc, #48]	@ (80017f8 <LoopFillZerobss+0x12>)
  ldr r1, =_edata
 80017c6:	490d      	ldr	r1, [pc, #52]	@ (80017fc <LoopFillZerobss+0x16>)
  ldr r2, =_sidata
 80017c8:	4a0d      	ldr	r2, [pc, #52]	@ (8001800 <LoopFillZerobss+0x1a>)
  movs r3, #0
 80017ca:	2300      	movs	r3, #0
  b LoopCopyDataInit
 80017cc:	e002      	b.n	80017d4 <LoopCopyDataInit>

080017ce <CopyDataInit>:

CopyDataInit:
  ldr r4, [r2, r3]
 80017ce:	58d4      	ldr	r4, [r2, r3]
  str r4, [r0, r3]
 80017d0:	50c4      	str	r4, [r0, r3]
  adds r3, r3, #4
 80017d2:	3304      	adds	r3, #4

080017d4 <LoopCopyDataInit>:

LoopCopyDataInit:
  adds r4, r0, r3
 80017d4:	18c4      	adds	r4, r0, r3
  cmp r4, r1
 80017d6:	428c      	cmp	r4, r1
  bcc CopyDataInit
 80017d8:	d3f9      	bcc.n	80017ce <CopyDataInit>
  
/* Zero fill the bss segment. */
  ldr r2, =_sbss
 80017da:	4a0a      	ldr	r2, [pc, #40]	@ (8001804 <LoopFillZerobss+0x1e>)
  ldr r4, =_ebss
 80017dc:	4c0a      	ldr	r4, [pc, #40]	@ (8001808 <LoopFillZerobss+0x22>)
  movs r3, #0
 80017de:	2300      	movs	r3, #0
  b LoopFillZerobss
 80017e0:	e001      	b.n	80017e6 <LoopFillZerobss>

080017e2 <FillZerobss>:

FillZerobss:
  str  r3, [r2]
 80017e2:	6013      	str	r3, [r2, #0]
  adds r2, r2, #4
 80017e4:	3204      	adds	r2, #4

080017e6 <LoopFillZerobss>:

LoopFillZerobss:
  cmp r2, r4
 80017e6:	42a2      	cmp	r2, r4
  bcc FillZerobss
 80017e8:	d3fb      	bcc.n	80017e2 <FillZerobss>
  
/* Call static constructors */
    bl __libc_init_array
 80017ea:	f002 f841 	bl	8003870 <__libc_init_array>
/* Call the application's entry point.*/
  bl  main
 80017ee:	f7ff fc3d 	bl	800106c <main>
  bx  lr    
 80017f2:	4770      	bx	lr
  ldr   sp, =_estack       /* set stack pointer */
 80017f4:	20030000 	.word	0x20030000
  ldr r0, =_sdata
 80017f8:	20000000 	.word	0x20000000
  ldr r1, =_edata
 80017fc:	2000005c 	.word	0x2000005c
  ldr r2, =_sidata
 8001800:	08004384 	.word	0x08004384
  ldr r2, =_sbss
 8001804:	2000005c 	.word	0x2000005c
  ldr r4, =_ebss
 8001808:	20000750 	.word	0x20000750

0800180c <ADC_IRQHandler>:
 * @retval None       
*/
    .section  .text.Default_Handler,"ax",%progbits
Default_Handler:
Infinite_Loop:
  b  Infinite_Loop
 800180c:	e7fe      	b.n	800180c <ADC_IRQHandler>
	...

08001810 <HAL_Init>:
  *         need to ensure that the SysTick time base is always set to 1 millisecond
  *         to have correct HAL operation.
  * @retval HAL status
  */
HAL_StatusTypeDef HAL_Init(void)
{
 8001810:	b508      	push	{r3, lr}
  /* Configure Flash prefetch, Instruction cache, Data cache */ 
#if (INSTRUCTION_CACHE_ENABLE != 0U)
  __HAL_FLASH_INSTRUCTION_CACHE_ENABLE();
 8001812:	4b0b      	ldr	r3, [pc, #44]	@ (8001840 <HAL_Init+0x30>)
 8001814:	681a      	ldr	r2, [r3, #0]
 8001816:	f442 7200 	orr.w	r2, r2, #512	@ 0x200
 800181a:	601a      	str	r2, [r3, #0]
#endif /* INSTRUCTION_CACHE_ENABLE */

#if (DATA_CACHE_ENABLE != 0U)
  __HAL_FLASH_DATA_CACHE_ENABLE();
 800181c:	681a      	ldr	r2, [r3, #0]
 800181e:	f442 6280 	orr.w	r2, r2, #1024	@ 0x400
 8001822:	601a      	str	r2, [r3, #0]
#endif /* DATA_CACHE_ENABLE */

#if (PREFETCH_ENABLE != 0U)
  __HAL_FLASH_PREFETCH_BUFFER_ENABLE();
 8001824:	681a      	ldr	r2, [r3, #0]
 8001826:	f442 7280 	orr.w	r2, r2, #256	@ 0x100
 800182a:	601a      	str	r2, [r3, #0]
#endif /* PREFETCH_ENABLE */

  /* Set Interrupt Group Priority */
  HAL_NVIC_SetPriorityGrouping(NVIC_PRIORITYGROUP_4);
 800182c:	2003      	movs	r0, #3
 800182e:	f000 fb27 	bl	8001e80 <HAL_NVIC_SetPriorityGrouping>

  /* Use systick as time base source and configure 1ms tick (default clock after Reset is HSI) */
  HAL_InitTick(TICK_INT_PRIORITY);
 8001832:	200f      	movs	r0, #15
 8001834:	f7ff ff20 	bl	8001678 <HAL_InitTick>

  /* Init the low level hardware */
  HAL_MspInit();
 8001838:	f7ff fcac 	bl	8001194 <HAL_MspInit>

  /* Return function status */
  return HAL_OK;
}
 800183c:	2000      	movs	r0, #0
 800183e:	bd08      	pop	{r3, pc}
 8001840:	40023c00 	.word	0x40023c00

08001844 <HAL_IncTick>:
  *      implementations in user file.
  * @retval None
  */
__weak void HAL_IncTick(void)
{
  uwTick += uwTickFreq;
 8001844:	4a03      	ldr	r2, [pc, #12]	@ (8001854 <HAL_IncTick+0x10>)
 8001846:	6811      	ldr	r1, [r2, #0]
 8001848:	4b03      	ldr	r3, [pc, #12]	@ (8001858 <HAL_IncTick+0x14>)
 800184a:	781b      	ldrb	r3, [r3, #0]
 800184c:	440b      	add	r3, r1
 800184e:	6013      	str	r3, [r2, #0]
}
 8001850:	4770      	bx	lr
 8001852:	bf00      	nop
 8001854:	20000604 	.word	0x20000604
 8001858:	20000004 	.word	0x20000004

0800185c <HAL_GetTick>:
  *       implementations in user file.
  * @retval tick value
  */
__weak uint32_t HAL_GetTick(void)
{
  return uwTick;
 800185c:	4b01      	ldr	r3, [pc, #4]	@ (8001864 <HAL_GetTick+0x8>)
 800185e:	6818      	ldr	r0, [r3, #0]
}
 8001860:	4770      	bx	lr
 8001862:	bf00      	nop
 8001864:	20000604 	.word	0x20000604

08001868 <HAL_Delay>:
  *       implementations in user file.
  * @param Delay specifies the delay time length, in milliseconds.
  * @retval None
  */
__weak void HAL_Delay(uint32_t Delay)
{
 8001868:	b538      	push	{r3, r4, r5, lr}
 800186a:	4604      	mov	r4, r0
  uint32_t tickstart = HAL_GetTick();
 800186c:	f7ff fff6 	bl	800185c <HAL_GetTick>
 8001870:	4605      	mov	r5, r0
  uint32_t wait = Delay;

  /* Add a freq to guarantee minimum wait */
  if (wait < HAL_MAX_DELAY)
 8001872:	f1b4 3fff 	cmp.w	r4, #4294967295
 8001876:	d002      	beq.n	800187e <HAL_Delay+0x16>
  {
    wait += (uint32_t)(uwTickFreq);
 8001878:	4b04      	ldr	r3, [pc, #16]	@ (800188c <HAL_Delay+0x24>)
 800187a:	781b      	ldrb	r3, [r3, #0]
 800187c:	441c      	add	r4, r3
  }

  while((HAL_GetTick() - tickstart) < wait)
 800187e:	f7ff ffed 	bl	800185c <HAL_GetTick>
 8001882:	1b40      	subs	r0, r0, r5
 8001884:	42a0      	cmp	r0, r4
 8001886:	d3fa      	bcc.n	800187e <HAL_Delay+0x16>
  {
  }
}
 8001888:	bd38      	pop	{r3, r4, r5, pc}
 800188a:	bf00      	nop
 800188c:	20000004 	.word	0x20000004

08001890 <ADC_Init>:
  /* (Depending on STM32F4 product, there may be up to 3 ADCs and 1 common */
  /* control register)                                                    */
  tmpADC_Common = ADC_COMMON_REGISTER(hadc);

  /* Set the ADC clock prescaler */
  tmpADC_Common->CCR &= ~(ADC_CCR_ADCPRE);
 8001890:	4b4a      	ldr	r3, [pc, #296]	@ (80019bc <ADC_Init+0x12c>)
 8001892:	685a      	ldr	r2, [r3, #4]
 8001894:	f422 3240 	bic.w	r2, r2, #196608	@ 0x30000
 8001898:	605a      	str	r2, [r3, #4]
  tmpADC_Common->CCR |=  hadc->Init.ClockPrescaler;
 800189a:	685a      	ldr	r2, [r3, #4]
 800189c:	6841      	ldr	r1, [r0, #4]
 800189e:	430a      	orrs	r2, r1
 80018a0:	605a      	str	r2, [r3, #4]

  /* Set ADC scan mode */
  hadc->Instance->CR1 &= ~(ADC_CR1_SCAN);
 80018a2:	6802      	ldr	r2, [r0, #0]
 80018a4:	6853      	ldr	r3, [r2, #4]
 80018a6:	f423 7380 	bic.w	r3, r3, #256	@ 0x100
 80018aa:	6053      	str	r3, [r2, #4]
  hadc->Instance->CR1 |=  ADC_CR1_SCANCONV(hadc->Init.ScanConvMode);
 80018ac:	6802      	ldr	r2, [r0, #0]
 80018ae:	6853      	ldr	r3, [r2, #4]
 80018b0:	6901      	ldr	r1, [r0, #16]
 80018b2:	ea43 2301 	orr.w	r3, r3, r1, lsl #8
 80018b6:	6053      	str	r3, [r2, #4]

  /* Set ADC resolution */
  hadc->Instance->CR1 &= ~(ADC_CR1_RES);
 80018b8:	6802      	ldr	r2, [r0, #0]
 80018ba:	6853      	ldr	r3, [r2, #4]
 80018bc:	f023 7340 	bic.w	r3, r3, #50331648	@ 0x3000000
 80018c0:	6053      	str	r3, [r2, #4]
  hadc->Instance->CR1 |=  hadc->Init.Resolution;
 80018c2:	6802      	ldr	r2, [r0, #0]
 80018c4:	6853      	ldr	r3, [r2, #4]
 80018c6:	6881      	ldr	r1, [r0, #8]
 80018c8:	430b      	orrs	r3, r1
 80018ca:	6053      	str	r3, [r2, #4]

  /* Set ADC data alignment */
  hadc->Instance->CR2 &= ~(ADC_CR2_ALIGN);
 80018cc:	6802      	ldr	r2, [r0, #0]
 80018ce:	6893      	ldr	r3, [r2, #8]
 80018d0:	f423 6300 	bic.w	r3, r3, #2048	@ 0x800
 80018d4:	6093      	str	r3, [r2, #8]
  hadc->Instance->CR2 |= hadc->Init.DataAlign;
 80018d6:	6802      	ldr	r2, [r0, #0]
 80018d8:	6893      	ldr	r3, [r2, #8]
 80018da:	68c1      	ldr	r1, [r0, #12]
 80018dc:	430b      	orrs	r3, r1
 80018de:	6093      	str	r3, [r2, #8]
  /* Enable external trigger if trigger selection is different of software  */
  /* start.                                                                 */
  /* Note: This configuration keeps the hardware feature of parameter       */
  /*       ExternalTrigConvEdge "trigger edge none" equivalent to           */
  /*       software start.                                                  */
  if (hadc->Init.ExternalTrigConv != ADC_SOFTWARE_START)
 80018e0:	6a82      	ldr	r2, [r0, #40]	@ 0x28
 80018e2:	4b37      	ldr	r3, [pc, #220]	@ (80019c0 <ADC_Init+0x130>)
 80018e4:	429a      	cmp	r2, r3
 80018e6:	d057      	beq.n	8001998 <ADC_Init+0x108>
  {
    /* Select external trigger to start conversion */
    hadc->Instance->CR2 &= ~(ADC_CR2_EXTSEL);
 80018e8:	6802      	ldr	r2, [r0, #0]
 80018ea:	6893      	ldr	r3, [r2, #8]
 80018ec:	f023 6370 	bic.w	r3, r3, #251658240	@ 0xf000000
 80018f0:	6093      	str	r3, [r2, #8]
    hadc->Instance->CR2 |= hadc->Init.ExternalTrigConv;
 80018f2:	6802      	ldr	r2, [r0, #0]
 80018f4:	6893      	ldr	r3, [r2, #8]
 80018f6:	6a81      	ldr	r1, [r0, #40]	@ 0x28
 80018f8:	430b      	orrs	r3, r1
 80018fa:	6093      	str	r3, [r2, #8]

    /* Select external trigger polarity */
    hadc->Instance->CR2 &= ~(ADC_CR2_EXTEN);
 80018fc:	6802      	ldr	r2, [r0, #0]
 80018fe:	6893      	ldr	r3, [r2, #8]
 8001900:	f023 5340 	bic.w	r3, r3, #805306368	@ 0x30000000
 8001904:	6093      	str	r3, [r2, #8]
    hadc->Instance->CR2 |= hadc->Init.ExternalTrigConvEdge;
 8001906:	6802      	ldr	r2, [r0, #0]
 8001908:	6893      	ldr	r3, [r2, #8]
 800190a:	6ac1      	ldr	r1, [r0, #44]	@ 0x2c
 800190c:	430b      	orrs	r3, r1
 800190e:	6093      	str	r3, [r2, #8]
    hadc->Instance->CR2 &= ~(ADC_CR2_EXTSEL);
    hadc->Instance->CR2 &= ~(ADC_CR2_EXTEN);
  }

  /* Enable or disable ADC continuous conversion mode */
  hadc->Instance->CR2 &= ~(ADC_CR2_CONT);
 8001910:	6802      	ldr	r2, [r0, #0]
 8001912:	6893      	ldr	r3, [r2, #8]
 8001914:	f023 0302 	bic.w	r3, r3, #2
 8001918:	6093      	str	r3, [r2, #8]
  hadc->Instance->CR2 |= ADC_CR2_CONTINUOUS((uint32_t)hadc->Init.ContinuousConvMode);
 800191a:	6802      	ldr	r2, [r0, #0]
 800191c:	6893      	ldr	r3, [r2, #8]
 800191e:	7e01      	ldrb	r1, [r0, #24]
 8001920:	ea43 0341 	orr.w	r3, r3, r1, lsl #1
 8001924:	6093      	str	r3, [r2, #8]

  if (hadc->Init.DiscontinuousConvMode != DISABLE)
 8001926:	f890 3020 	ldrb.w	r3, [r0, #32]
 800192a:	2b00      	cmp	r3, #0
 800192c:	d03f      	beq.n	80019ae <ADC_Init+0x11e>
  {
    assert_param(IS_ADC_REGULAR_DISC_NUMBER(hadc->Init.NbrOfDiscConversion));

    /* Enable the selected ADC regular discontinuous mode */
    hadc->Instance->CR1 |= (uint32_t)ADC_CR1_DISCEN;
 800192e:	6802      	ldr	r2, [r0, #0]
 8001930:	6853      	ldr	r3, [r2, #4]
 8001932:	f443 6300 	orr.w	r3, r3, #2048	@ 0x800
 8001936:	6053      	str	r3, [r2, #4]

    /* Set the number of channels to be converted in discontinuous mode */
    hadc->Instance->CR1 &= ~(ADC_CR1_DISCNUM);
 8001938:	6802      	ldr	r2, [r0, #0]
 800193a:	6853      	ldr	r3, [r2, #4]
 800193c:	f423 4360 	bic.w	r3, r3, #57344	@ 0xe000
 8001940:	6053      	str	r3, [r2, #4]
    hadc->Instance->CR1 |=  ADC_CR1_DISCONTINUOUS(hadc->Init.NbrOfDiscConversion);
 8001942:	6801      	ldr	r1, [r0, #0]
 8001944:	684b      	ldr	r3, [r1, #4]
 8001946:	6a42      	ldr	r2, [r0, #36]	@ 0x24
 8001948:	3a01      	subs	r2, #1
 800194a:	ea43 3342 	orr.w	r3, r3, r2, lsl #13
 800194e:	604b      	str	r3, [r1, #4]
    /* Disable the selected ADC regular discontinuous mode */
    hadc->Instance->CR1 &= ~(ADC_CR1_DISCEN);
  }

  /* Set ADC number of conversion */
  hadc->Instance->SQR1 &= ~(ADC_SQR1_L);
 8001950:	6802      	ldr	r2, [r0, #0]
 8001952:	6ad3      	ldr	r3, [r2, #44]	@ 0x2c
 8001954:	f423 0370 	bic.w	r3, r3, #15728640	@ 0xf00000
 8001958:	62d3      	str	r3, [r2, #44]	@ 0x2c
  hadc->Instance->SQR1 |=  ADC_SQR1(hadc->Init.NbrOfConversion);
 800195a:	6801      	ldr	r1, [r0, #0]
 800195c:	6acb      	ldr	r3, [r1, #44]	@ 0x2c
 800195e:	69c2      	ldr	r2, [r0, #28]
 8001960:	3a01      	subs	r2, #1
 8001962:	ea43 5302 	orr.w	r3, r3, r2, lsl #20
 8001966:	62cb      	str	r3, [r1, #44]	@ 0x2c

  /* Enable or disable ADC DMA continuous request */
  hadc->Instance->CR2 &= ~(ADC_CR2_DDS);
 8001968:	6802      	ldr	r2, [r0, #0]
 800196a:	6893      	ldr	r3, [r2, #8]
 800196c:	f423 7300 	bic.w	r3, r3, #512	@ 0x200
 8001970:	6093      	str	r3, [r2, #8]
  hadc->Instance->CR2 |= ADC_CR2_DMAContReq((uint32_t)hadc->Init.DMAContinuousRequests);
 8001972:	6802      	ldr	r2, [r0, #0]
 8001974:	6893      	ldr	r3, [r2, #8]
 8001976:	f890 1030 	ldrb.w	r1, [r0, #48]	@ 0x30
 800197a:	ea43 2341 	orr.w	r3, r3, r1, lsl #9
 800197e:	6093      	str	r3, [r2, #8]

  /* Enable or disable ADC end of conversion selection */
  hadc->Instance->CR2 &= ~(ADC_CR2_EOCS);
 8001980:	6802      	ldr	r2, [r0, #0]
 8001982:	6893      	ldr	r3, [r2, #8]
 8001984:	f423 6380 	bic.w	r3, r3, #1024	@ 0x400
 8001988:	6093      	str	r3, [r2, #8]
  hadc->Instance->CR2 |= ADC_CR2_EOCSelection(hadc->Init.EOCSelection);
 800198a:	6802      	ldr	r2, [r0, #0]
 800198c:	6893      	ldr	r3, [r2, #8]
 800198e:	6941      	ldr	r1, [r0, #20]
 8001990:	ea43 2381 	orr.w	r3, r3, r1, lsl #10
 8001994:	6093      	str	r3, [r2, #8]
}
 8001996:	4770      	bx	lr
    hadc->Instance->CR2 &= ~(ADC_CR2_EXTSEL);
 8001998:	6802      	ldr	r2, [r0, #0]
 800199a:	6893      	ldr	r3, [r2, #8]
 800199c:	f023 6370 	bic.w	r3, r3, #251658240	@ 0xf000000
 80019a0:	6093      	str	r3, [r2, #8]
    hadc->Instance->CR2 &= ~(ADC_CR2_EXTEN);
 80019a2:	6802      	ldr	r2, [r0, #0]
 80019a4:	6893      	ldr	r3, [r2, #8]
 80019a6:	f023 5340 	bic.w	r3, r3, #805306368	@ 0x30000000
 80019aa:	6093      	str	r3, [r2, #8]
 80019ac:	e7b0      	b.n	8001910 <ADC_Init+0x80>
    hadc->Instance->CR1 &= ~(ADC_CR1_DISCEN);
 80019ae:	6802      	ldr	r2, [r0, #0]
 80019b0:	6853      	ldr	r3, [r2, #4]
 80019b2:	f423 6300 	bic.w	r3, r3, #2048	@ 0x800
 80019b6:	6053      	str	r3, [r2, #4]
 80019b8:	e7ca      	b.n	8001950 <ADC_Init+0xc0>
 80019ba:	bf00      	nop
 80019bc:	40012300 	.word	0x40012300
 80019c0:	0f000001 	.word	0x0f000001

080019c4 <HAL_ADC_Init>:
  if (hadc == NULL)
 80019c4:	b338      	cbz	r0, 8001a16 <HAL_ADC_Init+0x52>
{
 80019c6:	b510      	push	{r4, lr}
 80019c8:	4604      	mov	r4, r0
  if (hadc->State == HAL_ADC_STATE_RESET)
 80019ca:	6c03      	ldr	r3, [r0, #64]	@ 0x40
 80019cc:	b143      	cbz	r3, 80019e0 <HAL_ADC_Init+0x1c>
  if (HAL_IS_BIT_CLR(hadc->State, HAL_ADC_STATE_ERROR_INTERNAL))
 80019ce:	6c23      	ldr	r3, [r4, #64]	@ 0x40
 80019d0:	f013 0f10 	tst.w	r3, #16
 80019d4:	d00b      	beq.n	80019ee <HAL_ADC_Init+0x2a>
    tmp_hal_status = HAL_ERROR;
 80019d6:	2001      	movs	r0, #1
  __HAL_UNLOCK(hadc);
 80019d8:	2300      	movs	r3, #0
 80019da:	f884 303c 	strb.w	r3, [r4, #60]	@ 0x3c
}
 80019de:	bd10      	pop	{r4, pc}
    HAL_ADC_MspInit(hadc);
 80019e0:	f7ff fbf4 	bl	80011cc <HAL_ADC_MspInit>
    ADC_CLEAR_ERRORCODE(hadc);
 80019e4:	2300      	movs	r3, #0
 80019e6:	6463      	str	r3, [r4, #68]	@ 0x44
    hadc->Lock = HAL_UNLOCKED;
 80019e8:	f884 303c 	strb.w	r3, [r4, #60]	@ 0x3c
 80019ec:	e7ef      	b.n	80019ce <HAL_ADC_Init+0xa>
    ADC_STATE_CLR_SET(hadc->State,
 80019ee:	6c23      	ldr	r3, [r4, #64]	@ 0x40
 80019f0:	f423 5388 	bic.w	r3, r3, #4352	@ 0x1100
 80019f4:	f023 0302 	bic.w	r3, r3, #2
 80019f8:	f043 0302 	orr.w	r3, r3, #2
 80019fc:	6423      	str	r3, [r4, #64]	@ 0x40
    ADC_Init(hadc);
 80019fe:	4620      	mov	r0, r4
 8001a00:	f7ff ff46 	bl	8001890 <ADC_Init>
    ADC_CLEAR_ERRORCODE(hadc);
 8001a04:	2000      	movs	r0, #0
 8001a06:	6460      	str	r0, [r4, #68]	@ 0x44
    ADC_STATE_CLR_SET(hadc->State,
 8001a08:	6c23      	ldr	r3, [r4, #64]	@ 0x40
 8001a0a:	f023 0303 	bic.w	r3, r3, #3
 8001a0e:	f043 0301 	orr.w	r3, r3, #1
 8001a12:	6423      	str	r3, [r4, #64]	@ 0x40
 8001a14:	e7e0      	b.n	80019d8 <HAL_ADC_Init+0x14>
    return HAL_ERROR;
 8001a16:	2001      	movs	r0, #1
}
 8001a18:	4770      	bx	lr
	...

08001a1c <HAL_ADC_Start_DMA>:
{
 8001a1c:	b510      	push	{r4, lr}
 8001a1e:	b082      	sub	sp, #8
 8001a20:	4613      	mov	r3, r2
  __IO uint32_t counter = 0U;
 8001a22:	2200      	movs	r2, #0
 8001a24:	9201      	str	r2, [sp, #4]
  __HAL_LOCK(hadc);
 8001a26:	f890 203c 	ldrb.w	r2, [r0, #60]	@ 0x3c
 8001a2a:	2a01      	cmp	r2, #1
 8001a2c:	f000 80ae 	beq.w	8001b8c <HAL_ADC_Start_DMA+0x170>
 8001a30:	4604      	mov	r4, r0
 8001a32:	2201      	movs	r2, #1
 8001a34:	f880 203c 	strb.w	r2, [r0, #60]	@ 0x3c
  if ((hadc->Instance->CR2 & ADC_CR2_ADON) != ADC_CR2_ADON)
 8001a38:	6802      	ldr	r2, [r0, #0]
 8001a3a:	6890      	ldr	r0, [r2, #8]
 8001a3c:	f010 0f01 	tst.w	r0, #1
 8001a40:	d113      	bne.n	8001a6a <HAL_ADC_Start_DMA+0x4e>
    __HAL_ADC_ENABLE(hadc);
 8001a42:	6890      	ldr	r0, [r2, #8]
 8001a44:	f040 0001 	orr.w	r0, r0, #1
 8001a48:	6090      	str	r0, [r2, #8]
    counter = (ADC_STAB_DELAY_US * (SystemCoreClock / 1000000U));
 8001a4a:	4a53      	ldr	r2, [pc, #332]	@ (8001b98 <HAL_ADC_Start_DMA+0x17c>)
 8001a4c:	6810      	ldr	r0, [r2, #0]
 8001a4e:	4a53      	ldr	r2, [pc, #332]	@ (8001b9c <HAL_ADC_Start_DMA+0x180>)
 8001a50:	fba2 2000 	umull	r2, r0, r2, r0
 8001a54:	0c80      	lsrs	r0, r0, #18
 8001a56:	eb00 0040 	add.w	r0, r0, r0, lsl #1
 8001a5a:	9001      	str	r0, [sp, #4]
    while (counter != 0U)
 8001a5c:	e002      	b.n	8001a64 <HAL_ADC_Start_DMA+0x48>
      counter--;
 8001a5e:	9801      	ldr	r0, [sp, #4]
 8001a60:	3801      	subs	r0, #1
 8001a62:	9001      	str	r0, [sp, #4]
    while (counter != 0U)
 8001a64:	9801      	ldr	r0, [sp, #4]
 8001a66:	2800      	cmp	r0, #0
 8001a68:	d1f9      	bne.n	8001a5e <HAL_ADC_Start_DMA+0x42>
  if ((hadc->Instance->CR2 & ADC_CR2_DMA) == ADC_CR2_DMA)
 8001a6a:	6822      	ldr	r2, [r4, #0]
 8001a6c:	6890      	ldr	r0, [r2, #8]
 8001a6e:	f410 7f80 	tst.w	r0, #256	@ 0x100
 8001a72:	d003      	beq.n	8001a7c <HAL_ADC_Start_DMA+0x60>
    CLEAR_BIT(hadc->Instance->CR2, ADC_CR2_DMA);
 8001a74:	6890      	ldr	r0, [r2, #8]
 8001a76:	f420 7080 	bic.w	r0, r0, #256	@ 0x100
 8001a7a:	6090      	str	r0, [r2, #8]
  if (HAL_IS_BIT_SET(hadc->Instance->CR2, ADC_CR2_ADON))
 8001a7c:	6822      	ldr	r2, [r4, #0]
 8001a7e:	6890      	ldr	r0, [r2, #8]
 8001a80:	f010 0f01 	tst.w	r0, #1
 8001a84:	d077      	beq.n	8001b76 <HAL_ADC_Start_DMA+0x15a>
    ADC_STATE_CLR_SET(hadc->State,
 8001a86:	6c20      	ldr	r0, [r4, #64]	@ 0x40
 8001a88:	f420 60e0 	bic.w	r0, r0, #1792	@ 0x700
 8001a8c:	f020 0001 	bic.w	r0, r0, #1
 8001a90:	f440 7080 	orr.w	r0, r0, #256	@ 0x100
 8001a94:	6420      	str	r0, [r4, #64]	@ 0x40
    if (READ_BIT(hadc->Instance->CR1, ADC_CR1_JAUTO) != RESET)
 8001a96:	6852      	ldr	r2, [r2, #4]
 8001a98:	f412 6f80 	tst.w	r2, #1024	@ 0x400
 8001a9c:	d005      	beq.n	8001aaa <HAL_ADC_Start_DMA+0x8e>
      ADC_STATE_CLR_SET(hadc->State, HAL_ADC_STATE_INJ_EOC, HAL_ADC_STATE_INJ_BUSY);
 8001a9e:	6c22      	ldr	r2, [r4, #64]	@ 0x40
 8001aa0:	f422 5240 	bic.w	r2, r2, #12288	@ 0x3000
 8001aa4:	f442 5280 	orr.w	r2, r2, #4096	@ 0x1000
 8001aa8:	6422      	str	r2, [r4, #64]	@ 0x40
    if (HAL_IS_BIT_SET(hadc->State, HAL_ADC_STATE_INJ_BUSY))
 8001aaa:	6c22      	ldr	r2, [r4, #64]	@ 0x40
 8001aac:	f412 5f80 	tst.w	r2, #4096	@ 0x1000
 8001ab0:	d036      	beq.n	8001b20 <HAL_ADC_Start_DMA+0x104>
      CLEAR_BIT(hadc->ErrorCode, (HAL_ADC_ERROR_OVR | HAL_ADC_ERROR_DMA));
 8001ab2:	6c62      	ldr	r2, [r4, #68]	@ 0x44
 8001ab4:	f022 0206 	bic.w	r2, r2, #6
 8001ab8:	6462      	str	r2, [r4, #68]	@ 0x44
    __HAL_UNLOCK(hadc);
 8001aba:	2200      	movs	r2, #0
 8001abc:	f884 203c 	strb.w	r2, [r4, #60]	@ 0x3c
    hadc->DMA_Handle->XferCpltCallback = ADC_DMAConvCplt;
 8001ac0:	6ba2      	ldr	r2, [r4, #56]	@ 0x38
 8001ac2:	4837      	ldr	r0, [pc, #220]	@ (8001ba0 <HAL_ADC_Start_DMA+0x184>)
 8001ac4:	63d0      	str	r0, [r2, #60]	@ 0x3c
    hadc->DMA_Handle->XferHalfCpltCallback = ADC_DMAHalfConvCplt;
 8001ac6:	6ba2      	ldr	r2, [r4, #56]	@ 0x38
 8001ac8:	4836      	ldr	r0, [pc, #216]	@ (8001ba4 <HAL_ADC_Start_DMA+0x188>)
 8001aca:	6410      	str	r0, [r2, #64]	@ 0x40
    hadc->DMA_Handle->XferErrorCallback = ADC_DMAError;
 8001acc:	6ba2      	ldr	r2, [r4, #56]	@ 0x38
 8001ace:	4836      	ldr	r0, [pc, #216]	@ (8001ba8 <HAL_ADC_Start_DMA+0x18c>)
 8001ad0:	64d0      	str	r0, [r2, #76]	@ 0x4c
    __HAL_ADC_CLEAR_FLAG(hadc, ADC_FLAG_EOC | ADC_FLAG_OVR);
 8001ad2:	6822      	ldr	r2, [r4, #0]
 8001ad4:	f06f 0022 	mvn.w	r0, #34	@ 0x22
 8001ad8:	6010      	str	r0, [r2, #0]
    __HAL_ADC_ENABLE_IT(hadc, ADC_IT_OVR);
 8001ada:	6820      	ldr	r0, [r4, #0]
 8001adc:	6842      	ldr	r2, [r0, #4]
 8001ade:	f042 6280 	orr.w	r2, r2, #67108864	@ 0x4000000
 8001ae2:	6042      	str	r2, [r0, #4]
    hadc->Instance->CR2 |= ADC_CR2_DMA;
 8001ae4:	6820      	ldr	r0, [r4, #0]
 8001ae6:	6882      	ldr	r2, [r0, #8]
 8001ae8:	f442 7280 	orr.w	r2, r2, #256	@ 0x100
 8001aec:	6082      	str	r2, [r0, #8]
    HAL_DMA_Start_IT(hadc->DMA_Handle, (uint32_t)&hadc->Instance->DR, (uint32_t)pData, Length);
 8001aee:	6820      	ldr	r0, [r4, #0]
 8001af0:	460a      	mov	r2, r1
 8001af2:	f100 014c 	add.w	r1, r0, #76	@ 0x4c
 8001af6:	6ba0      	ldr	r0, [r4, #56]	@ 0x38
 8001af8:	f000 fade 	bl	80020b8 <HAL_DMA_Start_IT>
    if (HAL_IS_BIT_CLR(tmpADC_Common->CCR, ADC_CCR_MULTI))
 8001afc:	4b2b      	ldr	r3, [pc, #172]	@ (8001bac <HAL_ADC_Start_DMA+0x190>)
 8001afe:	685b      	ldr	r3, [r3, #4]
 8001b00:	f013 0f1f 	tst.w	r3, #31
 8001b04:	d127      	bne.n	8001b56 <HAL_ADC_Start_DMA+0x13a>
      if ((hadc->Instance == ADC1) || ((hadc->Instance == ADC2) && ((ADC->CCR & ADC_CCR_MULTI_Msk) < ADC_CCR_MULTI_0)) \
 8001b06:	6823      	ldr	r3, [r4, #0]
 8001b08:	4a29      	ldr	r2, [pc, #164]	@ (8001bb0 <HAL_ADC_Start_DMA+0x194>)
 8001b0a:	4293      	cmp	r3, r2
 8001b0c:	d011      	beq.n	8001b32 <HAL_ADC_Start_DMA+0x116>
 8001b0e:	f502 7280 	add.w	r2, r2, #256	@ 0x100
 8001b12:	4293      	cmp	r3, r2
 8001b14:	d007      	beq.n	8001b26 <HAL_ADC_Start_DMA+0x10a>
          || ((hadc->Instance == ADC3) && ((ADC->CCR & ADC_CCR_MULTI_Msk) < ADC_CCR_MULTI_4)))
 8001b16:	4a27      	ldr	r2, [pc, #156]	@ (8001bb4 <HAL_ADC_Start_DMA+0x198>)
 8001b18:	4293      	cmp	r3, r2
 8001b1a:	d014      	beq.n	8001b46 <HAL_ADC_Start_DMA+0x12a>
  return HAL_OK;
 8001b1c:	2000      	movs	r0, #0
 8001b1e:	e033      	b.n	8001b88 <HAL_ADC_Start_DMA+0x16c>
      ADC_CLEAR_ERRORCODE(hadc);
 8001b20:	2200      	movs	r2, #0
 8001b22:	6462      	str	r2, [r4, #68]	@ 0x44
 8001b24:	e7c9      	b.n	8001aba <HAL_ADC_Start_DMA+0x9e>
      if ((hadc->Instance == ADC1) || ((hadc->Instance == ADC2) && ((ADC->CCR & ADC_CCR_MULTI_Msk) < ADC_CCR_MULTI_0)) \
 8001b26:	f502 7200 	add.w	r2, r2, #512	@ 0x200
 8001b2a:	6852      	ldr	r2, [r2, #4]
 8001b2c:	f012 0f1f 	tst.w	r2, #31
 8001b30:	d1f1      	bne.n	8001b16 <HAL_ADC_Start_DMA+0xfa>
        if ((hadc->Instance->CR2 & ADC_CR2_EXTEN) == RESET)
 8001b32:	689a      	ldr	r2, [r3, #8]
 8001b34:	f012 5f40 	tst.w	r2, #805306368	@ 0x30000000
 8001b38:	d12a      	bne.n	8001b90 <HAL_ADC_Start_DMA+0x174>
          hadc->Instance->CR2 |= (uint32_t)ADC_CR2_SWSTART;
 8001b3a:	689a      	ldr	r2, [r3, #8]
 8001b3c:	f042 4280 	orr.w	r2, r2, #1073741824	@ 0x40000000
 8001b40:	609a      	str	r2, [r3, #8]
  return HAL_OK;
 8001b42:	2000      	movs	r0, #0
 8001b44:	e020      	b.n	8001b88 <HAL_ADC_Start_DMA+0x16c>
          || ((hadc->Instance == ADC3) && ((ADC->CCR & ADC_CCR_MULTI_Msk) < ADC_CCR_MULTI_4)))
 8001b46:	f502 7280 	add.w	r2, r2, #256	@ 0x100
 8001b4a:	6852      	ldr	r2, [r2, #4]
 8001b4c:	f012 0f10 	tst.w	r2, #16
 8001b50:	d0ef      	beq.n	8001b32 <HAL_ADC_Start_DMA+0x116>
  return HAL_OK;
 8001b52:	2000      	movs	r0, #0
 8001b54:	e018      	b.n	8001b88 <HAL_ADC_Start_DMA+0x16c>
      if ((hadc->Instance == ADC1) && ((hadc->Instance->CR2 & ADC_CR2_EXTEN) == RESET))
 8001b56:	6823      	ldr	r3, [r4, #0]
 8001b58:	4a15      	ldr	r2, [pc, #84]	@ (8001bb0 <HAL_ADC_Start_DMA+0x194>)
 8001b5a:	4293      	cmp	r3, r2
 8001b5c:	d001      	beq.n	8001b62 <HAL_ADC_Start_DMA+0x146>
  return HAL_OK;
 8001b5e:	2000      	movs	r0, #0
 8001b60:	e012      	b.n	8001b88 <HAL_ADC_Start_DMA+0x16c>
      if ((hadc->Instance == ADC1) && ((hadc->Instance->CR2 & ADC_CR2_EXTEN) == RESET))
 8001b62:	689a      	ldr	r2, [r3, #8]
 8001b64:	f012 5f40 	tst.w	r2, #805306368	@ 0x30000000
 8001b68:	d114      	bne.n	8001b94 <HAL_ADC_Start_DMA+0x178>
        hadc->Instance->CR2 |= (uint32_t)ADC_CR2_SWSTART;
 8001b6a:	689a      	ldr	r2, [r3, #8]
 8001b6c:	f042 4280 	orr.w	r2, r2, #1073741824	@ 0x40000000
 8001b70:	609a      	str	r2, [r3, #8]
  return HAL_OK;
 8001b72:	2000      	movs	r0, #0
 8001b74:	e008      	b.n	8001b88 <HAL_ADC_Start_DMA+0x16c>
    SET_BIT(hadc->State, HAL_ADC_STATE_ERROR_INTERNAL);
 8001b76:	6c23      	ldr	r3, [r4, #64]	@ 0x40
 8001b78:	f043 0310 	orr.w	r3, r3, #16
 8001b7c:	6423      	str	r3, [r4, #64]	@ 0x40
    SET_BIT(hadc->ErrorCode, HAL_ADC_ERROR_INTERNAL);
 8001b7e:	6c63      	ldr	r3, [r4, #68]	@ 0x44
 8001b80:	f043 0301 	orr.w	r3, r3, #1
 8001b84:	6463      	str	r3, [r4, #68]	@ 0x44
  return HAL_OK;
 8001b86:	2000      	movs	r0, #0
}
 8001b88:	b002      	add	sp, #8
 8001b8a:	bd10      	pop	{r4, pc}
  __HAL_LOCK(hadc);
 8001b8c:	2002      	movs	r0, #2
 8001b8e:	e7fb      	b.n	8001b88 <HAL_ADC_Start_DMA+0x16c>
  return HAL_OK;
 8001b90:	2000      	movs	r0, #0
 8001b92:	e7f9      	b.n	8001b88 <HAL_ADC_Start_DMA+0x16c>
 8001b94:	2000      	movs	r0, #0
 8001b96:	e7f7      	b.n	8001b88 <HAL_ADC_Start_DMA+0x16c>
 8001b98:	20000000 	.word	0x20000000
 8001b9c:	431bde83 	.word	0x431bde83
 8001ba0:	08001bdf 	.word	0x08001bdf
 8001ba4:	08001bbd 	.word	0x08001bbd
 8001ba8:	08001bc9 	.word	0x08001bc9
 8001bac:	40012300 	.word	0x40012300
 8001bb0:	40012000 	.word	0x40012000
 8001bb4:	40012200 	.word	0x40012200

08001bb8 <HAL_ADC_ConvCpltCallback>:
}
 8001bb8:	4770      	bx	lr

08001bba <HAL_ADC_ConvHalfCpltCallback>:
}
 8001bba:	4770      	bx	lr

08001bbc <ADC_DMAHalfConvCplt>:
  * @param  hdma pointer to a DMA_HandleTypeDef structure that contains
  *                the configuration information for the specified DMA module.
  * @retval None
  */
static void ADC_DMAHalfConvCplt(DMA_HandleTypeDef *hdma)
{
 8001bbc:	b508      	push	{r3, lr}
  ADC_HandleTypeDef *hadc = (ADC_HandleTypeDef *)((DMA_HandleTypeDef *)hdma)->Parent;
  /* Half conversion callback */
#if (USE_HAL_ADC_REGISTER_CALLBACKS == 1)
  hadc->ConvHalfCpltCallback(hadc);
#else
  HAL_ADC_ConvHalfCpltCallback(hadc);
 8001bbe:	6b80      	ldr	r0, [r0, #56]	@ 0x38
 8001bc0:	f7ff fffb 	bl	8001bba <HAL_ADC_ConvHalfCpltCallback>
#endif /* USE_HAL_ADC_REGISTER_CALLBACKS */
}
 8001bc4:	bd08      	pop	{r3, pc}

08001bc6 <HAL_ADC_ErrorCallback>:
}
 8001bc6:	4770      	bx	lr

08001bc8 <ADC_DMAError>:
  * @param  hdma pointer to a DMA_HandleTypeDef structure that contains
  *                the configuration information for the specified DMA module.
  * @retval None
  */
static void ADC_DMAError(DMA_HandleTypeDef *hdma)
{
 8001bc8:	b508      	push	{r3, lr}
  ADC_HandleTypeDef *hadc = (ADC_HandleTypeDef *)((DMA_HandleTypeDef *)hdma)->Parent;
 8001bca:	6b80      	ldr	r0, [r0, #56]	@ 0x38
  hadc->State = HAL_ADC_STATE_ERROR_DMA;
 8001bcc:	2340      	movs	r3, #64	@ 0x40
 8001bce:	6403      	str	r3, [r0, #64]	@ 0x40
  /* Set ADC error code to DMA error */
  hadc->ErrorCode |= HAL_ADC_ERROR_DMA;
 8001bd0:	6c43      	ldr	r3, [r0, #68]	@ 0x44
 8001bd2:	f043 0304 	orr.w	r3, r3, #4
 8001bd6:	6443      	str	r3, [r0, #68]	@ 0x44
  /* Error callback */
#if (USE_HAL_ADC_REGISTER_CALLBACKS == 1)
  hadc->ErrorCallback(hadc);
#else
  HAL_ADC_ErrorCallback(hadc);
 8001bd8:	f7ff fff5 	bl	8001bc6 <HAL_ADC_ErrorCallback>
#endif /* USE_HAL_ADC_REGISTER_CALLBACKS */
}
 8001bdc:	bd08      	pop	{r3, pc}

08001bde <ADC_DMAConvCplt>:
{
 8001bde:	b508      	push	{r3, lr}
 8001be0:	4603      	mov	r3, r0
  ADC_HandleTypeDef *hadc = (ADC_HandleTypeDef *)((DMA_HandleTypeDef *)hdma)->Parent;
 8001be2:	6b80      	ldr	r0, [r0, #56]	@ 0x38
  if (HAL_IS_BIT_CLR(hadc->State, HAL_ADC_STATE_ERROR_INTERNAL | HAL_ADC_STATE_ERROR_DMA))
 8001be4:	6c02      	ldr	r2, [r0, #64]	@ 0x40
 8001be6:	f012 0f50 	tst.w	r2, #80	@ 0x50
 8001bea:	d125      	bne.n	8001c38 <ADC_DMAConvCplt+0x5a>
    SET_BIT(hadc->State, HAL_ADC_STATE_REG_EOC);
 8001bec:	6c03      	ldr	r3, [r0, #64]	@ 0x40
 8001bee:	f443 7300 	orr.w	r3, r3, #512	@ 0x200
 8001bf2:	6403      	str	r3, [r0, #64]	@ 0x40
    if (ADC_IS_SOFTWARE_START_REGULAR(hadc)                   &&
 8001bf4:	6803      	ldr	r3, [r0, #0]
 8001bf6:	689a      	ldr	r2, [r3, #8]
 8001bf8:	f012 5f40 	tst.w	r2, #805306368	@ 0x30000000
 8001bfc:	d119      	bne.n	8001c32 <ADC_DMAConvCplt+0x54>
        (hadc->Init.ContinuousConvMode == DISABLE)            &&
 8001bfe:	7e02      	ldrb	r2, [r0, #24]
    if (ADC_IS_SOFTWARE_START_REGULAR(hadc)                   &&
 8001c00:	b9ba      	cbnz	r2, 8001c32 <ADC_DMAConvCplt+0x54>
        (HAL_IS_BIT_CLR(hadc->Instance->SQR1, ADC_SQR1_L) ||
 8001c02:	6ada      	ldr	r2, [r3, #44]	@ 0x2c
        (hadc->Init.ContinuousConvMode == DISABLE)            &&
 8001c04:	f412 0f70 	tst.w	r2, #15728640	@ 0xf00000
 8001c08:	d003      	beq.n	8001c12 <ADC_DMAConvCplt+0x34>
         HAL_IS_BIT_CLR(hadc->Instance->CR2, ADC_CR2_EOCS)))
 8001c0a:	689a      	ldr	r2, [r3, #8]
        (HAL_IS_BIT_CLR(hadc->Instance->SQR1, ADC_SQR1_L) ||
 8001c0c:	f412 6f80 	tst.w	r2, #1024	@ 0x400
 8001c10:	d10f      	bne.n	8001c32 <ADC_DMAConvCplt+0x54>
      __HAL_ADC_DISABLE_IT(hadc, ADC_IT_EOC);
 8001c12:	685a      	ldr	r2, [r3, #4]
 8001c14:	f022 0220 	bic.w	r2, r2, #32
 8001c18:	605a      	str	r2, [r3, #4]
      CLEAR_BIT(hadc->State, HAL_ADC_STATE_REG_BUSY);
 8001c1a:	6c03      	ldr	r3, [r0, #64]	@ 0x40
 8001c1c:	f423 7380 	bic.w	r3, r3, #256	@ 0x100
 8001c20:	6403      	str	r3, [r0, #64]	@ 0x40
      if (HAL_IS_BIT_CLR(hadc->State, HAL_ADC_STATE_INJ_BUSY))
 8001c22:	6c03      	ldr	r3, [r0, #64]	@ 0x40
 8001c24:	f413 5f80 	tst.w	r3, #4096	@ 0x1000
 8001c28:	d103      	bne.n	8001c32 <ADC_DMAConvCplt+0x54>
        SET_BIT(hadc->State, HAL_ADC_STATE_READY);
 8001c2a:	6c03      	ldr	r3, [r0, #64]	@ 0x40
 8001c2c:	f043 0301 	orr.w	r3, r3, #1
 8001c30:	6403      	str	r3, [r0, #64]	@ 0x40
    HAL_ADC_ConvCpltCallback(hadc);
 8001c32:	f7ff ffc1 	bl	8001bb8 <HAL_ADC_ConvCpltCallback>
}
 8001c36:	bd08      	pop	{r3, pc}
    if ((hadc->State & HAL_ADC_STATE_ERROR_INTERNAL) != 0UL)
 8001c38:	6c02      	ldr	r2, [r0, #64]	@ 0x40
 8001c3a:	f012 0f10 	tst.w	r2, #16
 8001c3e:	d104      	bne.n	8001c4a <ADC_DMAConvCplt+0x6c>
      hadc->DMA_Handle->XferErrorCallback(hdma);
 8001c40:	6b82      	ldr	r2, [r0, #56]	@ 0x38
 8001c42:	6cd2      	ldr	r2, [r2, #76]	@ 0x4c
 8001c44:	4618      	mov	r0, r3
 8001c46:	4790      	blx	r2
}
 8001c48:	e7f5      	b.n	8001c36 <ADC_DMAConvCplt+0x58>
      HAL_ADC_ErrorCallback(hadc);
 8001c4a:	f7ff ffbc 	bl	8001bc6 <HAL_ADC_ErrorCallback>
 8001c4e:	e7f2      	b.n	8001c36 <ADC_DMAConvCplt+0x58>

08001c50 <HAL_ADC_ConfigChannel>:
{
 8001c50:	b430      	push	{r4, r5}
 8001c52:	b082      	sub	sp, #8
  __IO uint32_t counter = 0U;
 8001c54:	2200      	movs	r2, #0
 8001c56:	9201      	str	r2, [sp, #4]
  __HAL_LOCK(hadc);
 8001c58:	f890 203c 	ldrb.w	r2, [r0, #60]	@ 0x3c
 8001c5c:	2a01      	cmp	r2, #1
 8001c5e:	f000 80c0 	beq.w	8001de2 <HAL_ADC_ConfigChannel+0x192>
 8001c62:	4603      	mov	r3, r0
 8001c64:	2201      	movs	r2, #1
 8001c66:	f880 203c 	strb.w	r2, [r0, #60]	@ 0x3c
  if (sConfig->Channel > ADC_CHANNEL_9)
 8001c6a:	680a      	ldr	r2, [r1, #0]
 8001c6c:	2a09      	cmp	r2, #9
 8001c6e:	d940      	bls.n	8001cf2 <HAL_ADC_ConfigChannel+0xa2>
    hadc->Instance->SMPR1 &= ~ADC_SMPR1(ADC_SMPR1_SMP10, sConfig->Channel);
 8001c70:	6804      	ldr	r4, [r0, #0]
 8001c72:	68e0      	ldr	r0, [r4, #12]
 8001c74:	b292      	uxth	r2, r2
 8001c76:	eb02 0242 	add.w	r2, r2, r2, lsl #1
 8001c7a:	3a1e      	subs	r2, #30
 8001c7c:	f04f 0c07 	mov.w	ip, #7
 8001c80:	fa0c f202 	lsl.w	r2, ip, r2
 8001c84:	ea20 0202 	bic.w	r2, r0, r2
 8001c88:	60e2      	str	r2, [r4, #12]
    hadc->Instance->SMPR1 |= ADC_SMPR1(sConfig->SamplingTime, sConfig->Channel);
 8001c8a:	681c      	ldr	r4, [r3, #0]
 8001c8c:	68e0      	ldr	r0, [r4, #12]
 8001c8e:	880a      	ldrh	r2, [r1, #0]
 8001c90:	eb02 0242 	add.w	r2, r2, r2, lsl #1
 8001c94:	3a1e      	subs	r2, #30
 8001c96:	688d      	ldr	r5, [r1, #8]
 8001c98:	fa05 f202 	lsl.w	r2, r5, r2
 8001c9c:	4302      	orrs	r2, r0
 8001c9e:	60e2      	str	r2, [r4, #12]
  if (sConfig->Rank < 7U)
 8001ca0:	684a      	ldr	r2, [r1, #4]
 8001ca2:	2a06      	cmp	r2, #6
 8001ca4:	d83c      	bhi.n	8001d20 <HAL_ADC_ConfigChannel+0xd0>
    hadc->Instance->SQR3 &= ~ADC_SQR3_RK(ADC_SQR3_SQ1, sConfig->Rank);
 8001ca6:	681c      	ldr	r4, [r3, #0]
 8001ca8:	6b60      	ldr	r0, [r4, #52]	@ 0x34
 8001caa:	eb02 0282 	add.w	r2, r2, r2, lsl #2
 8001cae:	3a05      	subs	r2, #5
 8001cb0:	f04f 0c1f 	mov.w	ip, #31
 8001cb4:	fa0c f202 	lsl.w	r2, ip, r2
 8001cb8:	ea20 0202 	bic.w	r2, r0, r2
 8001cbc:	6362      	str	r2, [r4, #52]	@ 0x34
    hadc->Instance->SQR3 |= ADC_SQR3_RK(sConfig->Channel, sConfig->Rank);
 8001cbe:	681c      	ldr	r4, [r3, #0]
 8001cc0:	6b60      	ldr	r0, [r4, #52]	@ 0x34
 8001cc2:	684a      	ldr	r2, [r1, #4]
 8001cc4:	eb02 0282 	add.w	r2, r2, r2, lsl #2
 8001cc8:	3a05      	subs	r2, #5
 8001cca:	f8b1 c000 	ldrh.w	ip, [r1]
 8001cce:	fa0c f202 	lsl.w	r2, ip, r2
 8001cd2:	4302      	orrs	r2, r0
 8001cd4:	6362      	str	r2, [r4, #52]	@ 0x34
  if ((hadc->Instance == ADC1) && (sConfig->Channel == ADC_CHANNEL_VBAT))
 8001cd6:	6818      	ldr	r0, [r3, #0]
 8001cd8:	4a43      	ldr	r2, [pc, #268]	@ (8001de8 <HAL_ADC_ConfigChannel+0x198>)
 8001cda:	4290      	cmp	r0, r2
 8001cdc:	d050      	beq.n	8001d80 <HAL_ADC_ConfigChannel+0x130>
  if ((hadc->Instance == ADC1) && ((sConfig->Channel == ADC_CHANNEL_TEMPSENSOR) || (sConfig->Channel == ADC_CHANNEL_VREFINT)))
 8001cde:	6818      	ldr	r0, [r3, #0]
 8001ce0:	4a41      	ldr	r2, [pc, #260]	@ (8001de8 <HAL_ADC_ConfigChannel+0x198>)
 8001ce2:	4290      	cmp	r0, r2
 8001ce4:	d059      	beq.n	8001d9a <HAL_ADC_ConfigChannel+0x14a>
  __HAL_UNLOCK(hadc);
 8001ce6:	2000      	movs	r0, #0
 8001ce8:	f883 003c 	strb.w	r0, [r3, #60]	@ 0x3c
}
 8001cec:	b002      	add	sp, #8
 8001cee:	bc30      	pop	{r4, r5}
 8001cf0:	4770      	bx	lr
    hadc->Instance->SMPR2 &= ~ADC_SMPR2(ADC_SMPR2_SMP0, sConfig->Channel);
 8001cf2:	6804      	ldr	r4, [r0, #0]
 8001cf4:	6920      	ldr	r0, [r4, #16]
 8001cf6:	b292      	uxth	r2, r2
 8001cf8:	eb02 0242 	add.w	r2, r2, r2, lsl #1
 8001cfc:	f04f 0c07 	mov.w	ip, #7
 8001d00:	fa0c f202 	lsl.w	r2, ip, r2
 8001d04:	ea20 0202 	bic.w	r2, r0, r2
 8001d08:	6122      	str	r2, [r4, #16]
    hadc->Instance->SMPR2 |= ADC_SMPR2(sConfig->SamplingTime, sConfig->Channel);
 8001d0a:	681c      	ldr	r4, [r3, #0]
 8001d0c:	6920      	ldr	r0, [r4, #16]
 8001d0e:	880a      	ldrh	r2, [r1, #0]
 8001d10:	eb02 0242 	add.w	r2, r2, r2, lsl #1
 8001d14:	688d      	ldr	r5, [r1, #8]
 8001d16:	fa05 f202 	lsl.w	r2, r5, r2
 8001d1a:	4302      	orrs	r2, r0
 8001d1c:	6122      	str	r2, [r4, #16]
 8001d1e:	e7bf      	b.n	8001ca0 <HAL_ADC_ConfigChannel+0x50>
  else if (sConfig->Rank < 13U)
 8001d20:	2a0c      	cmp	r2, #12
 8001d22:	d816      	bhi.n	8001d52 <HAL_ADC_ConfigChannel+0x102>
    hadc->Instance->SQR2 &= ~ADC_SQR2_RK(ADC_SQR2_SQ7, sConfig->Rank);
 8001d24:	681d      	ldr	r5, [r3, #0]
 8001d26:	6b28      	ldr	r0, [r5, #48]	@ 0x30
 8001d28:	eb02 0282 	add.w	r2, r2, r2, lsl #2
 8001d2c:	3a23      	subs	r2, #35	@ 0x23
 8001d2e:	241f      	movs	r4, #31
 8001d30:	fa04 f202 	lsl.w	r2, r4, r2
 8001d34:	ea20 0202 	bic.w	r2, r0, r2
 8001d38:	632a      	str	r2, [r5, #48]	@ 0x30
    hadc->Instance->SQR2 |= ADC_SQR2_RK(sConfig->Channel, sConfig->Rank);
 8001d3a:	681d      	ldr	r5, [r3, #0]
 8001d3c:	6b28      	ldr	r0, [r5, #48]	@ 0x30
 8001d3e:	684a      	ldr	r2, [r1, #4]
 8001d40:	eb02 0282 	add.w	r2, r2, r2, lsl #2
 8001d44:	3a23      	subs	r2, #35	@ 0x23
 8001d46:	880c      	ldrh	r4, [r1, #0]
 8001d48:	fa04 f202 	lsl.w	r2, r4, r2
 8001d4c:	4302      	orrs	r2, r0
 8001d4e:	632a      	str	r2, [r5, #48]	@ 0x30
 8001d50:	e7c1      	b.n	8001cd6 <HAL_ADC_ConfigChannel+0x86>
    hadc->Instance->SQR1 &= ~ADC_SQR1_RK(ADC_SQR1_SQ13, sConfig->Rank);
 8001d52:	681d      	ldr	r5, [r3, #0]
 8001d54:	6ae8      	ldr	r0, [r5, #44]	@ 0x2c
 8001d56:	eb02 0282 	add.w	r2, r2, r2, lsl #2
 8001d5a:	3a41      	subs	r2, #65	@ 0x41
 8001d5c:	241f      	movs	r4, #31
 8001d5e:	fa04 f202 	lsl.w	r2, r4, r2
 8001d62:	ea20 0202 	bic.w	r2, r0, r2
 8001d66:	62ea      	str	r2, [r5, #44]	@ 0x2c
    hadc->Instance->SQR1 |= ADC_SQR1_RK(sConfig->Channel, sConfig->Rank);
 8001d68:	681d      	ldr	r5, [r3, #0]
 8001d6a:	6ae8      	ldr	r0, [r5, #44]	@ 0x2c
 8001d6c:	684a      	ldr	r2, [r1, #4]
 8001d6e:	eb02 0282 	add.w	r2, r2, r2, lsl #2
 8001d72:	3a41      	subs	r2, #65	@ 0x41
 8001d74:	880c      	ldrh	r4, [r1, #0]
 8001d76:	fa04 f202 	lsl.w	r2, r4, r2
 8001d7a:	4302      	orrs	r2, r0
 8001d7c:	62ea      	str	r2, [r5, #44]	@ 0x2c
 8001d7e:	e7aa      	b.n	8001cd6 <HAL_ADC_ConfigChannel+0x86>
  if ((hadc->Instance == ADC1) && (sConfig->Channel == ADC_CHANNEL_VBAT))
 8001d80:	680a      	ldr	r2, [r1, #0]
 8001d82:	2a12      	cmp	r2, #18
 8001d84:	d1ab      	bne.n	8001cde <HAL_ADC_ConfigChannel+0x8e>
      tmpADC_Common->CCR &= ~ADC_CCR_TSVREFE;
 8001d86:	4a19      	ldr	r2, [pc, #100]	@ (8001dec <HAL_ADC_ConfigChannel+0x19c>)
 8001d88:	6850      	ldr	r0, [r2, #4]
 8001d8a:	f420 0000 	bic.w	r0, r0, #8388608	@ 0x800000
 8001d8e:	6050      	str	r0, [r2, #4]
    tmpADC_Common->CCR |= ADC_CCR_VBATE;
 8001d90:	6850      	ldr	r0, [r2, #4]
 8001d92:	f440 0080 	orr.w	r0, r0, #4194304	@ 0x400000
 8001d96:	6050      	str	r0, [r2, #4]
 8001d98:	e7a1      	b.n	8001cde <HAL_ADC_ConfigChannel+0x8e>
  if ((hadc->Instance == ADC1) && ((sConfig->Channel == ADC_CHANNEL_TEMPSENSOR) || (sConfig->Channel == ADC_CHANNEL_VREFINT)))
 8001d9a:	680a      	ldr	r2, [r1, #0]
 8001d9c:	4814      	ldr	r0, [pc, #80]	@ (8001df0 <HAL_ADC_ConfigChannel+0x1a0>)
 8001d9e:	4282      	cmp	r2, r0
 8001da0:	d001      	beq.n	8001da6 <HAL_ADC_ConfigChannel+0x156>
 8001da2:	2a11      	cmp	r2, #17
 8001da4:	d19f      	bne.n	8001ce6 <HAL_ADC_ConfigChannel+0x96>
      tmpADC_Common->CCR &= ~ADC_CCR_VBATE;
 8001da6:	4a11      	ldr	r2, [pc, #68]	@ (8001dec <HAL_ADC_ConfigChannel+0x19c>)
 8001da8:	6850      	ldr	r0, [r2, #4]
 8001daa:	f420 0080 	bic.w	r0, r0, #4194304	@ 0x400000
 8001dae:	6050      	str	r0, [r2, #4]
    tmpADC_Common->CCR |= ADC_CCR_TSVREFE;
 8001db0:	6850      	ldr	r0, [r2, #4]
 8001db2:	f440 0000 	orr.w	r0, r0, #8388608	@ 0x800000
 8001db6:	6050      	str	r0, [r2, #4]
    if (sConfig->Channel == ADC_CHANNEL_TEMPSENSOR)
 8001db8:	6809      	ldr	r1, [r1, #0]
 8001dba:	4a0d      	ldr	r2, [pc, #52]	@ (8001df0 <HAL_ADC_ConfigChannel+0x1a0>)
 8001dbc:	4291      	cmp	r1, r2
 8001dbe:	d192      	bne.n	8001ce6 <HAL_ADC_ConfigChannel+0x96>
      counter = (ADC_TEMPSENSOR_DELAY_US * (SystemCoreClock / 1000000U));
 8001dc0:	4a0c      	ldr	r2, [pc, #48]	@ (8001df4 <HAL_ADC_ConfigChannel+0x1a4>)
 8001dc2:	6812      	ldr	r2, [r2, #0]
 8001dc4:	490c      	ldr	r1, [pc, #48]	@ (8001df8 <HAL_ADC_ConfigChannel+0x1a8>)
 8001dc6:	fba1 1202 	umull	r1, r2, r1, r2
 8001dca:	0c92      	lsrs	r2, r2, #18
 8001dcc:	eb02 0282 	add.w	r2, r2, r2, lsl #2
 8001dd0:	0052      	lsls	r2, r2, #1
 8001dd2:	9201      	str	r2, [sp, #4]
      while (counter != 0U)
 8001dd4:	9a01      	ldr	r2, [sp, #4]
 8001dd6:	2a00      	cmp	r2, #0
 8001dd8:	d085      	beq.n	8001ce6 <HAL_ADC_ConfigChannel+0x96>
        counter--;
 8001dda:	9a01      	ldr	r2, [sp, #4]
 8001ddc:	3a01      	subs	r2, #1
 8001dde:	9201      	str	r2, [sp, #4]
 8001de0:	e7f8      	b.n	8001dd4 <HAL_ADC_ConfigChannel+0x184>
  __HAL_LOCK(hadc);
 8001de2:	2002      	movs	r0, #2
 8001de4:	e782      	b.n	8001cec <HAL_ADC_ConfigChannel+0x9c>
 8001de6:	bf00      	nop
 8001de8:	40012000 	.word	0x40012000
 8001dec:	40012300 	.word	0x40012300
 8001df0:	10000012 	.word	0x10000012
 8001df4:	20000000 	.word	0x20000000
 8001df8:	431bde83 	.word	0x431bde83

08001dfc <__NVIC_EnableIRQ>:
  \param [in]      IRQn  Device specific interrupt number.
  \note    IRQn must not be negative.
 */
__STATIC_INLINE void __NVIC_EnableIRQ(IRQn_Type IRQn)
{
  if ((int32_t)(IRQn) >= 0)
 8001dfc:	2800      	cmp	r0, #0
 8001dfe:	db07      	blt.n	8001e10 <__NVIC_EnableIRQ+0x14>
  {
    __COMPILER_BARRIER();
    NVIC->ISER[(((uint32_t)IRQn) >> 5UL)] = (uint32_t)(1UL << (((uint32_t)IRQn) & 0x1FUL));
 8001e00:	f000 021f 	and.w	r2, r0, #31
 8001e04:	0940      	lsrs	r0, r0, #5
 8001e06:	2301      	movs	r3, #1
 8001e08:	4093      	lsls	r3, r2
 8001e0a:	4a02      	ldr	r2, [pc, #8]	@ (8001e14 <__NVIC_EnableIRQ+0x18>)
 8001e0c:	f842 3020 	str.w	r3, [r2, r0, lsl #2]
    __COMPILER_BARRIER();
  }
}
 8001e10:	4770      	bx	lr
 8001e12:	bf00      	nop
 8001e14:	e000e100 	.word	0xe000e100

08001e18 <__NVIC_SetPriority>:
  \param [in]  priority  Priority to set.
  \note    The priority cannot be set for every processor exception.
 */
__STATIC_INLINE void __NVIC_SetPriority(IRQn_Type IRQn, uint32_t priority)
{
  if ((int32_t)(IRQn) >= 0)
 8001e18:	2800      	cmp	r0, #0
 8001e1a:	db08      	blt.n	8001e2e <__NVIC_SetPriority+0x16>
  {
    NVIC->IP[((uint32_t)IRQn)]               = (uint8_t)((priority << (8U - __NVIC_PRIO_BITS)) & (uint32_t)0xFFUL);
 8001e1c:	0109      	lsls	r1, r1, #4
 8001e1e:	b2c9      	uxtb	r1, r1
 8001e20:	f100 4060 	add.w	r0, r0, #3758096384	@ 0xe0000000
 8001e24:	f500 4061 	add.w	r0, r0, #57600	@ 0xe100
 8001e28:	f880 1300 	strb.w	r1, [r0, #768]	@ 0x300
 8001e2c:	4770      	bx	lr
  }
  else
  {
    SCB->SHP[(((uint32_t)IRQn) & 0xFUL)-4UL] = (uint8_t)((priority << (8U - __NVIC_PRIO_BITS)) & (uint32_t)0xFFUL);
 8001e2e:	f000 000f 	and.w	r0, r0, #15
 8001e32:	0109      	lsls	r1, r1, #4
 8001e34:	b2c9      	uxtb	r1, r1
 8001e36:	4b01      	ldr	r3, [pc, #4]	@ (8001e3c <__NVIC_SetPriority+0x24>)
 8001e38:	5419      	strb	r1, [r3, r0]
  }
}
 8001e3a:	4770      	bx	lr
 8001e3c:	e000ed14 	.word	0xe000ed14

08001e40 <NVIC_EncodePriority>:
  \param [in]   PreemptPriority  Preemptive priority value (starting from 0).
  \param [in]       SubPriority  Subpriority value (starting from 0).
  \return                        Encoded priority. Value can be used in the function \ref NVIC_SetPriority().
 */
__STATIC_INLINE uint32_t NVIC_EncodePriority (uint32_t PriorityGroup, uint32_t PreemptPriority, uint32_t SubPriority)
{
 8001e40:	b500      	push	{lr}
  uint32_t PriorityGroupTmp = (PriorityGroup & (uint32_t)0x07UL);   /* only values 0..7 are used          */
 8001e42:	f000 0007 	and.w	r0, r0, #7
  uint32_t PreemptPriorityBits;
  uint32_t SubPriorityBits;

  PreemptPriorityBits = ((7UL - PriorityGroupTmp) > (uint32_t)(__NVIC_PRIO_BITS)) ? (uint32_t)(__NVIC_PRIO_BITS) : (uint32_t)(7UL - PriorityGroupTmp);
 8001e46:	f1c0 0c07 	rsb	ip, r0, #7
 8001e4a:	f1bc 0f04 	cmp.w	ip, #4
 8001e4e:	bf28      	it	cs
 8001e50:	f04f 0c04 	movcs.w	ip, #4
  SubPriorityBits     = ((PriorityGroupTmp + (uint32_t)(__NVIC_PRIO_BITS)) < (uint32_t)7UL) ? (uint32_t)0UL : (uint32_t)((PriorityGroupTmp - 7UL) + (uint32_t)(__NVIC_PRIO_BITS));
 8001e54:	1d03      	adds	r3, r0, #4
 8001e56:	2b06      	cmp	r3, #6
 8001e58:	d90f      	bls.n	8001e7a <NVIC_EncodePriority+0x3a>
 8001e5a:	1ec3      	subs	r3, r0, #3

  return (
           ((PreemptPriority & (uint32_t)((1UL << (PreemptPriorityBits)) - 1UL)) << SubPriorityBits) |
 8001e5c:	f04f 3eff 	mov.w	lr, #4294967295
 8001e60:	fa0e f00c 	lsl.w	r0, lr, ip
 8001e64:	ea21 0100 	bic.w	r1, r1, r0
 8001e68:	4099      	lsls	r1, r3
           ((SubPriority     & (uint32_t)((1UL << (SubPriorityBits    )) - 1UL)))
 8001e6a:	fa0e fe03 	lsl.w	lr, lr, r3
 8001e6e:	ea22 020e 	bic.w	r2, r2, lr
         );
}
 8001e72:	ea41 0002 	orr.w	r0, r1, r2
 8001e76:	f85d fb04 	ldr.w	pc, [sp], #4
  SubPriorityBits     = ((PriorityGroupTmp + (uint32_t)(__NVIC_PRIO_BITS)) < (uint32_t)7UL) ? (uint32_t)0UL : (uint32_t)((PriorityGroupTmp - 7UL) + (uint32_t)(__NVIC_PRIO_BITS));
 8001e7a:	2300      	movs	r3, #0
 8001e7c:	e7ee      	b.n	8001e5c <NVIC_EncodePriority+0x1c>
	...

08001e80 <HAL_NVIC_SetPriorityGrouping>:
  reg_value  =  SCB->AIRCR;                                                   /* read old register configuration    */
 8001e80:	4a07      	ldr	r2, [pc, #28]	@ (8001ea0 <HAL_NVIC_SetPriorityGrouping+0x20>)
 8001e82:	68d3      	ldr	r3, [r2, #12]
  reg_value &= ~((uint32_t)(SCB_AIRCR_VECTKEY_Msk | SCB_AIRCR_PRIGROUP_Msk)); /* clear bits to change               */
 8001e84:	f423 63e0 	bic.w	r3, r3, #1792	@ 0x700
 8001e88:	041b      	lsls	r3, r3, #16
 8001e8a:	0c1b      	lsrs	r3, r3, #16
                (PriorityGroupTmp << SCB_AIRCR_PRIGROUP_Pos)  );              /* Insert write key and priority group */
 8001e8c:	0200      	lsls	r0, r0, #8
 8001e8e:	f400 60e0 	and.w	r0, r0, #1792	@ 0x700
                ((uint32_t)0x5FAUL << SCB_AIRCR_VECTKEY_Pos) |
 8001e92:	4303      	orrs	r3, r0
  reg_value  =  (reg_value                                   |
 8001e94:	f043 63bf 	orr.w	r3, r3, #100139008	@ 0x5f80000
 8001e98:	f443 3300 	orr.w	r3, r3, #131072	@ 0x20000
  SCB->AIRCR =  reg_value;
 8001e9c:	60d3      	str	r3, [r2, #12]
  /* Check the parameters */
  assert_param(IS_NVIC_PRIORITY_GROUP(PriorityGroup));
  
  /* Set the PRIGROUP[10:8] bits according to the PriorityGroup parameter value */
  NVIC_SetPriorityGrouping(PriorityGroup);
}
 8001e9e:	4770      	bx	lr
 8001ea0:	e000ed00 	.word	0xe000ed00

08001ea4 <HAL_NVIC_SetPriority>:
  *         This parameter can be a value between 0 and 15
  *         A lower priority value indicates a higher priority.          
  * @retval None
  */
void HAL_NVIC_SetPriority(IRQn_Type IRQn, uint32_t PreemptPriority, uint32_t SubPriority)
{ 
 8001ea4:	b510      	push	{r4, lr}
 8001ea6:	4604      	mov	r4, r0
  return ((uint32_t)((SCB->AIRCR & SCB_AIRCR_PRIGROUP_Msk) >> SCB_AIRCR_PRIGROUP_Pos));
 8001ea8:	4b05      	ldr	r3, [pc, #20]	@ (8001ec0 <HAL_NVIC_SetPriority+0x1c>)
 8001eaa:	68d8      	ldr	r0, [r3, #12]
  assert_param(IS_NVIC_SUB_PRIORITY(SubPriority));
  assert_param(IS_NVIC_PREEMPTION_PRIORITY(PreemptPriority));
  
  prioritygroup = NVIC_GetPriorityGrouping();
  
  NVIC_SetPriority(IRQn, NVIC_EncodePriority(prioritygroup, PreemptPriority, SubPriority));
 8001eac:	f3c0 2002 	ubfx	r0, r0, #8, #3
 8001eb0:	f7ff ffc6 	bl	8001e40 <NVIC_EncodePriority>
 8001eb4:	4601      	mov	r1, r0
 8001eb6:	4620      	mov	r0, r4
 8001eb8:	f7ff ffae 	bl	8001e18 <__NVIC_SetPriority>
}
 8001ebc:	bd10      	pop	{r4, pc}
 8001ebe:	bf00      	nop
 8001ec0:	e000ed00 	.word	0xe000ed00

08001ec4 <HAL_NVIC_EnableIRQ>:
  *         This parameter can be an enumerator of IRQn_Type enumeration
  *         (For the complete STM32 Devices IRQ Channels list, please refer to the appropriate CMSIS device file (stm32f4xxxx.h))
  * @retval None
  */
void HAL_NVIC_EnableIRQ(IRQn_Type IRQn)
{
 8001ec4:	b508      	push	{r3, lr}
  /* Check the parameters */
  assert_param(IS_NVIC_DEVICE_IRQ(IRQn));
  
  /* Enable interrupt */
  NVIC_EnableIRQ(IRQn);
 8001ec6:	f7ff ff99 	bl	8001dfc <__NVIC_EnableIRQ>
}
 8001eca:	bd08      	pop	{r3, pc}

08001ecc <HAL_CRC_Init>:
  * @retval HAL status
  */
HAL_StatusTypeDef HAL_CRC_Init(CRC_HandleTypeDef *hcrc)
{
  /* Check the CRC handle allocation */
  if (hcrc == NULL)
 8001ecc:	b158      	cbz	r0, 8001ee6 <HAL_CRC_Init+0x1a>
{
 8001ece:	b510      	push	{r4, lr}
 8001ed0:	4604      	mov	r4, r0
  }

  /* Check the parameters */
  assert_param(IS_CRC_ALL_INSTANCE(hcrc->Instance));

  if (hcrc->State == HAL_CRC_STATE_RESET)
 8001ed2:	7943      	ldrb	r3, [r0, #5]
 8001ed4:	b11b      	cbz	r3, 8001ede <HAL_CRC_Init+0x12>
    /* Init the low level hardware */
    HAL_CRC_MspInit(hcrc);
  }

  /* Change CRC peripheral state */
  hcrc->State = HAL_CRC_STATE_READY;
 8001ed6:	2301      	movs	r3, #1
 8001ed8:	7163      	strb	r3, [r4, #5]

  /* Return function status */
  return HAL_OK;
 8001eda:	2000      	movs	r0, #0
}
 8001edc:	bd10      	pop	{r4, pc}
    hcrc->Lock = HAL_UNLOCKED;
 8001ede:	7103      	strb	r3, [r0, #4]
    HAL_CRC_MspInit(hcrc);
 8001ee0:	f7ff f9ca 	bl	8001278 <HAL_CRC_MspInit>
 8001ee4:	e7f7      	b.n	8001ed6 <HAL_CRC_Init+0xa>
    return HAL_ERROR;
 8001ee6:	2001      	movs	r0, #1
}
 8001ee8:	4770      	bx	lr

08001eea <DMA_SetConfig>:
  * @param  DstAddress The destination memory Buffer address
  * @param  DataLength The length of data to be transferred from source to destination
  * @retval HAL status
  */
static void DMA_SetConfig(DMA_HandleTypeDef *hdma, uint32_t SrcAddress, uint32_t DstAddress, uint32_t DataLength)
{
 8001eea:	b430      	push	{r4, r5}
  /* Clear DBM bit */
  hdma->Instance->CR &= (uint32_t)(~DMA_SxCR_DBM);
 8001eec:	6805      	ldr	r5, [r0, #0]
 8001eee:	682c      	ldr	r4, [r5, #0]
 8001ef0:	f424 2480 	bic.w	r4, r4, #262144	@ 0x40000
 8001ef4:	602c      	str	r4, [r5, #0]

  /* Configure DMA Stream data length */
  hdma->Instance->NDTR = DataLength;
 8001ef6:	6804      	ldr	r4, [r0, #0]
 8001ef8:	6063      	str	r3, [r4, #4]

  /* Memory to Peripheral */
  if((hdma->Init.Direction) == DMA_MEMORY_TO_PERIPH)
 8001efa:	6883      	ldr	r3, [r0, #8]
 8001efc:	2b40      	cmp	r3, #64	@ 0x40
 8001efe:	d005      	beq.n	8001f0c <DMA_SetConfig+0x22>
  }
  /* Peripheral to Memory */
  else
  {
    /* Configure DMA Stream source address */
    hdma->Instance->PAR = SrcAddress;
 8001f00:	6803      	ldr	r3, [r0, #0]
 8001f02:	6099      	str	r1, [r3, #8]

    /* Configure DMA Stream destination address */
    hdma->Instance->M0AR = DstAddress;
 8001f04:	6803      	ldr	r3, [r0, #0]
 8001f06:	60da      	str	r2, [r3, #12]
  }
}
 8001f08:	bc30      	pop	{r4, r5}
 8001f0a:	4770      	bx	lr
    hdma->Instance->PAR = DstAddress;
 8001f0c:	6803      	ldr	r3, [r0, #0]
 8001f0e:	609a      	str	r2, [r3, #8]
    hdma->Instance->M0AR = SrcAddress;
 8001f10:	6803      	ldr	r3, [r0, #0]
 8001f12:	60d9      	str	r1, [r3, #12]
 8001f14:	e7f8      	b.n	8001f08 <DMA_SetConfig+0x1e>
	...

08001f18 <DMA_CalcBaseAndBitshift>:
  * @param  hdma       pointer to a DMA_HandleTypeDef structure that contains
  *                     the configuration information for the specified DMA Stream. 
  * @retval Stream base address
  */
static uint32_t DMA_CalcBaseAndBitshift(DMA_HandleTypeDef *hdma)
{
 8001f18:	b410      	push	{r4}
  uint32_t stream_number = (((uint32_t)hdma->Instance & 0xFFU) - 16U) / 24U;
 8001f1a:	6803      	ldr	r3, [r0, #0]
 8001f1c:	b2d9      	uxtb	r1, r3
 8001f1e:	3910      	subs	r1, #16
 8001f20:	4a0c      	ldr	r2, [pc, #48]	@ (8001f54 <DMA_CalcBaseAndBitshift+0x3c>)
 8001f22:	fba2 4201 	umull	r4, r2, r2, r1
 8001f26:	0912      	lsrs	r2, r2, #4
  
  /* lookup table for necessary bitshift of flags within status registers */
  static const uint8_t flagBitshiftOffset[8U] = {0U, 6U, 16U, 22U, 0U, 6U, 16U, 22U};
  hdma->StreamIndex = flagBitshiftOffset[stream_number];
 8001f28:	4c0b      	ldr	r4, [pc, #44]	@ (8001f58 <DMA_CalcBaseAndBitshift+0x40>)
 8001f2a:	5ca2      	ldrb	r2, [r4, r2]
 8001f2c:	65c2      	str	r2, [r0, #92]	@ 0x5c
  
  if (stream_number > 3U)
 8001f2e:	295f      	cmp	r1, #95	@ 0x5f
 8001f30:	d909      	bls.n	8001f46 <DMA_CalcBaseAndBitshift+0x2e>
  {
    /* return pointer to HISR and HIFCR */
    hdma->StreamBaseAddress = (((uint32_t)hdma->Instance & (uint32_t)(~0x3FFU)) + 4U);
 8001f32:	f423 737f 	bic.w	r3, r3, #1020	@ 0x3fc
 8001f36:	f023 0303 	bic.w	r3, r3, #3
 8001f3a:	3304      	adds	r3, #4
 8001f3c:	6583      	str	r3, [r0, #88]	@ 0x58
    /* return pointer to LISR and LIFCR */
    hdma->StreamBaseAddress = ((uint32_t)hdma->Instance & (uint32_t)(~0x3FFU));
  }
  
  return hdma->StreamBaseAddress;
}
 8001f3e:	6d80      	ldr	r0, [r0, #88]	@ 0x58
 8001f40:	f85d 4b04 	ldr.w	r4, [sp], #4
 8001f44:	4770      	bx	lr
    hdma->StreamBaseAddress = ((uint32_t)hdma->Instance & (uint32_t)(~0x3FFU));
 8001f46:	f423 737f 	bic.w	r3, r3, #1020	@ 0x3fc
 8001f4a:	f023 0303 	bic.w	r3, r3, #3
 8001f4e:	6583      	str	r3, [r0, #88]	@ 0x58
 8001f50:	e7f5      	b.n	8001f3e <DMA_CalcBaseAndBitshift+0x26>
 8001f52:	bf00      	nop
 8001f54:	aaaaaaab 	.word	0xaaaaaaab
 8001f58:	08004238 	.word	0x08004238

08001f5c <DMA_CheckFifoParam>:
  * @retval HAL status
  */
static HAL_StatusTypeDef DMA_CheckFifoParam(DMA_HandleTypeDef *hdma)
{
  HAL_StatusTypeDef status = HAL_OK;
  uint32_t tmp = hdma->Init.FIFOThreshold;
 8001f5c:	6a83      	ldr	r3, [r0, #40]	@ 0x28
  
  /* Memory Data size equal to Byte */
  if(hdma->Init.MemDataAlignment == DMA_MDATAALIGN_BYTE)
 8001f5e:	6982      	ldr	r2, [r0, #24]
 8001f60:	b992      	cbnz	r2, 8001f88 <DMA_CheckFifoParam+0x2c>
  {
    switch (tmp)
 8001f62:	2b01      	cmp	r3, #1
 8001f64:	d00a      	beq.n	8001f7c <DMA_CheckFifoParam+0x20>
 8001f66:	2b02      	cmp	r3, #2
 8001f68:	d002      	beq.n	8001f70 <DMA_CheckFifoParam+0x14>
 8001f6a:	b10b      	cbz	r3, 8001f70 <DMA_CheckFifoParam+0x14>
 8001f6c:	2000      	movs	r0, #0
 8001f6e:	4770      	bx	lr
    {
    case DMA_FIFO_THRESHOLD_1QUARTERFULL:
    case DMA_FIFO_THRESHOLD_3QUARTERSFULL:
      if ((hdma->Init.MemBurst & DMA_SxCR_MBURST_1) == DMA_SxCR_MBURST_1)
 8001f70:	6ac3      	ldr	r3, [r0, #44]	@ 0x2c
 8001f72:	f013 7f80 	tst.w	r3, #16777216	@ 0x1000000
 8001f76:	d128      	bne.n	8001fca <DMA_CheckFifoParam+0x6e>
  HAL_StatusTypeDef status = HAL_OK;
 8001f78:	2000      	movs	r0, #0
 8001f7a:	4770      	bx	lr
      {
        status = HAL_ERROR;
      }
      break;
    case DMA_FIFO_THRESHOLD_HALFFULL:
      if (hdma->Init.MemBurst == DMA_MBURST_INC16)
 8001f7c:	6ac3      	ldr	r3, [r0, #44]	@ 0x2c
 8001f7e:	f1b3 7fc0 	cmp.w	r3, #25165824	@ 0x1800000
 8001f82:	d024      	beq.n	8001fce <DMA_CheckFifoParam+0x72>
  HAL_StatusTypeDef status = HAL_OK;
 8001f84:	2000      	movs	r0, #0
 8001f86:	4770      	bx	lr
      break;
    }
  }
  
  /* Memory Data size equal to Half-Word */
  else if (hdma->Init.MemDataAlignment == DMA_MDATAALIGN_HALFWORD)
 8001f88:	f5b2 5f00 	cmp.w	r2, #8192	@ 0x2000
 8001f8c:	d009      	beq.n	8001fa2 <DMA_CheckFifoParam+0x46>
  }
  
  /* Memory Data size equal to Word */
  else
  {
    switch (tmp)
 8001f8e:	2b02      	cmp	r3, #2
 8001f90:	d925      	bls.n	8001fde <DMA_CheckFifoParam+0x82>
 8001f92:	2b03      	cmp	r3, #3
 8001f94:	d125      	bne.n	8001fe2 <DMA_CheckFifoParam+0x86>
    case DMA_FIFO_THRESHOLD_HALFFULL:
    case DMA_FIFO_THRESHOLD_3QUARTERSFULL:
      status = HAL_ERROR;
      break;
    case DMA_FIFO_THRESHOLD_FULL:
      if ((hdma->Init.MemBurst & DMA_SxCR_MBURST_1) == DMA_SxCR_MBURST_1)
 8001f96:	6ac3      	ldr	r3, [r0, #44]	@ 0x2c
 8001f98:	f013 7f80 	tst.w	r3, #16777216	@ 0x1000000
 8001f9c:	d123      	bne.n	8001fe6 <DMA_CheckFifoParam+0x8a>
  HAL_StatusTypeDef status = HAL_OK;
 8001f9e:	2000      	movs	r0, #0
 8001fa0:	4770      	bx	lr
    switch (tmp)
 8001fa2:	2b03      	cmp	r3, #3
 8001fa4:	d803      	bhi.n	8001fae <DMA_CheckFifoParam+0x52>
 8001fa6:	e8df f003 	tbb	[pc, r3]
 8001faa:	0414      	.short	0x0414
 8001fac:	0a14      	.short	0x0a14
 8001fae:	2000      	movs	r0, #0
 8001fb0:	4770      	bx	lr
      if ((hdma->Init.MemBurst & DMA_SxCR_MBURST_1) == DMA_SxCR_MBURST_1)
 8001fb2:	6ac3      	ldr	r3, [r0, #44]	@ 0x2c
 8001fb4:	f013 7f80 	tst.w	r3, #16777216	@ 0x1000000
 8001fb8:	d10d      	bne.n	8001fd6 <DMA_CheckFifoParam+0x7a>
  HAL_StatusTypeDef status = HAL_OK;
 8001fba:	2000      	movs	r0, #0
 8001fbc:	4770      	bx	lr
      if (hdma->Init.MemBurst == DMA_MBURST_INC16)
 8001fbe:	6ac3      	ldr	r3, [r0, #44]	@ 0x2c
 8001fc0:	f1b3 7fc0 	cmp.w	r3, #25165824	@ 0x1800000
 8001fc4:	d009      	beq.n	8001fda <DMA_CheckFifoParam+0x7e>
  HAL_StatusTypeDef status = HAL_OK;
 8001fc6:	2000      	movs	r0, #0
 8001fc8:	4770      	bx	lr
        status = HAL_ERROR;
 8001fca:	2001      	movs	r0, #1
 8001fcc:	4770      	bx	lr
        status = HAL_ERROR;
 8001fce:	2001      	movs	r0, #1
 8001fd0:	4770      	bx	lr
      status = HAL_ERROR;
 8001fd2:	2001      	movs	r0, #1
 8001fd4:	4770      	bx	lr
        status = HAL_ERROR;
 8001fd6:	2001      	movs	r0, #1
 8001fd8:	4770      	bx	lr
        status = HAL_ERROR;
 8001fda:	2001      	movs	r0, #1
 8001fdc:	4770      	bx	lr
      status = HAL_ERROR;
 8001fde:	2001      	movs	r0, #1
 8001fe0:	4770      	bx	lr
    switch (tmp)
 8001fe2:	2000      	movs	r0, #0
 8001fe4:	4770      	bx	lr
      {
        status = HAL_ERROR;
 8001fe6:	2001      	movs	r0, #1
      break;
    }
  } 
  
  return status; 
}
 8001fe8:	4770      	bx	lr
	...

08001fec <HAL_DMA_Init>:
{
 8001fec:	b570      	push	{r4, r5, r6, lr}
 8001fee:	4604      	mov	r4, r0
  uint32_t tickstart = HAL_GetTick();
 8001ff0:	f7ff fc34 	bl	800185c <HAL_GetTick>
  if(hdma == NULL)
 8001ff4:	2c00      	cmp	r4, #0
 8001ff6:	d05b      	beq.n	80020b0 <HAL_DMA_Init+0xc4>
 8001ff8:	4605      	mov	r5, r0
  hdma->State = HAL_DMA_STATE_BUSY;
 8001ffa:	2302      	movs	r3, #2
 8001ffc:	f884 3035 	strb.w	r3, [r4, #53]	@ 0x35
  __HAL_UNLOCK(hdma);
 8002000:	2300      	movs	r3, #0
 8002002:	f884 3034 	strb.w	r3, [r4, #52]	@ 0x34
  __HAL_DMA_DISABLE(hdma);
 8002006:	6822      	ldr	r2, [r4, #0]
 8002008:	6813      	ldr	r3, [r2, #0]
 800200a:	f023 0301 	bic.w	r3, r3, #1
 800200e:	6013      	str	r3, [r2, #0]
  while((hdma->Instance->CR & DMA_SxCR_EN) != RESET)
 8002010:	6823      	ldr	r3, [r4, #0]
 8002012:	681a      	ldr	r2, [r3, #0]
 8002014:	f012 0f01 	tst.w	r2, #1
 8002018:	d00a      	beq.n	8002030 <HAL_DMA_Init+0x44>
    if((HAL_GetTick() - tickstart ) > HAL_TIMEOUT_DMA_ABORT)
 800201a:	f7ff fc1f 	bl	800185c <HAL_GetTick>
 800201e:	1b43      	subs	r3, r0, r5
 8002020:	2b05      	cmp	r3, #5
 8002022:	d9f5      	bls.n	8002010 <HAL_DMA_Init+0x24>
      hdma->ErrorCode = HAL_DMA_ERROR_TIMEOUT;
 8002024:	2320      	movs	r3, #32
 8002026:	6563      	str	r3, [r4, #84]	@ 0x54
      hdma->State = HAL_DMA_STATE_TIMEOUT;
 8002028:	2003      	movs	r0, #3
 800202a:	f884 0035 	strb.w	r0, [r4, #53]	@ 0x35
}
 800202e:	bd70      	pop	{r4, r5, r6, pc}
  tmp = hdma->Instance->CR;
 8002030:	681a      	ldr	r2, [r3, #0]
  tmp &= ((uint32_t)~(DMA_SxCR_CHSEL | DMA_SxCR_MBURST | DMA_SxCR_PBURST | \
 8002032:	4920      	ldr	r1, [pc, #128]	@ (80020b4 <HAL_DMA_Init+0xc8>)
 8002034:	4011      	ands	r1, r2
  tmp |=  hdma->Init.Channel             | hdma->Init.Direction        |
 8002036:	6862      	ldr	r2, [r4, #4]
 8002038:	68a0      	ldr	r0, [r4, #8]
 800203a:	4302      	orrs	r2, r0
          hdma->Init.PeriphInc           | hdma->Init.MemInc           |
 800203c:	68e0      	ldr	r0, [r4, #12]
  tmp |=  hdma->Init.Channel             | hdma->Init.Direction        |
 800203e:	4302      	orrs	r2, r0
          hdma->Init.PeriphInc           | hdma->Init.MemInc           |
 8002040:	6920      	ldr	r0, [r4, #16]
 8002042:	4302      	orrs	r2, r0
          hdma->Init.PeriphDataAlignment | hdma->Init.MemDataAlignment |
 8002044:	6960      	ldr	r0, [r4, #20]
          hdma->Init.PeriphInc           | hdma->Init.MemInc           |
 8002046:	4302      	orrs	r2, r0
          hdma->Init.PeriphDataAlignment | hdma->Init.MemDataAlignment |
 8002048:	69a0      	ldr	r0, [r4, #24]
 800204a:	4302      	orrs	r2, r0
          hdma->Init.Mode                | hdma->Init.Priority;
 800204c:	69e0      	ldr	r0, [r4, #28]
          hdma->Init.PeriphDataAlignment | hdma->Init.MemDataAlignment |
 800204e:	4302      	orrs	r2, r0
          hdma->Init.Mode                | hdma->Init.Priority;
 8002050:	6a20      	ldr	r0, [r4, #32]
 8002052:	4302      	orrs	r2, r0
  tmp |=  hdma->Init.Channel             | hdma->Init.Direction        |
 8002054:	430a      	orrs	r2, r1
  if(hdma->Init.FIFOMode == DMA_FIFOMODE_ENABLE)
 8002056:	6a61      	ldr	r1, [r4, #36]	@ 0x24
 8002058:	2904      	cmp	r1, #4
 800205a:	d01e      	beq.n	800209a <HAL_DMA_Init+0xae>
  hdma->Instance->CR = tmp;  
 800205c:	601a      	str	r2, [r3, #0]
  tmp = hdma->Instance->FCR;
 800205e:	6826      	ldr	r6, [r4, #0]
 8002060:	6975      	ldr	r5, [r6, #20]
  tmp &= (uint32_t)~(DMA_SxFCR_DMDIS | DMA_SxFCR_FTH);
 8002062:	f025 0507 	bic.w	r5, r5, #7
  tmp |= hdma->Init.FIFOMode;
 8002066:	6a63      	ldr	r3, [r4, #36]	@ 0x24
 8002068:	431d      	orrs	r5, r3
  if(hdma->Init.FIFOMode == DMA_FIFOMODE_ENABLE)
 800206a:	2b04      	cmp	r3, #4
 800206c:	d107      	bne.n	800207e <HAL_DMA_Init+0x92>
    tmp |= hdma->Init.FIFOThreshold;
 800206e:	6aa3      	ldr	r3, [r4, #40]	@ 0x28
 8002070:	431d      	orrs	r5, r3
    if (hdma->Init.MemBurst != DMA_MBURST_SINGLE)
 8002072:	6ae3      	ldr	r3, [r4, #44]	@ 0x2c
 8002074:	b11b      	cbz	r3, 800207e <HAL_DMA_Init+0x92>
      if (DMA_CheckFifoParam(hdma) != HAL_OK)
 8002076:	4620      	mov	r0, r4
 8002078:	f7ff ff70 	bl	8001f5c <DMA_CheckFifoParam>
 800207c:	b990      	cbnz	r0, 80020a4 <HAL_DMA_Init+0xb8>
  hdma->Instance->FCR = tmp;
 800207e:	6175      	str	r5, [r6, #20]
  regs = (DMA_Base_Registers *)DMA_CalcBaseAndBitshift(hdma);
 8002080:	4620      	mov	r0, r4
 8002082:	f7ff ff49 	bl	8001f18 <DMA_CalcBaseAndBitshift>
  regs->IFCR = 0x3FU << hdma->StreamIndex;
 8002086:	6de2      	ldr	r2, [r4, #92]	@ 0x5c
 8002088:	233f      	movs	r3, #63	@ 0x3f
 800208a:	4093      	lsls	r3, r2
 800208c:	6083      	str	r3, [r0, #8]
  hdma->ErrorCode = HAL_DMA_ERROR_NONE;
 800208e:	2000      	movs	r0, #0
 8002090:	6560      	str	r0, [r4, #84]	@ 0x54
  hdma->State = HAL_DMA_STATE_READY;
 8002092:	2301      	movs	r3, #1
 8002094:	f884 3035 	strb.w	r3, [r4, #53]	@ 0x35
  return HAL_OK;
 8002098:	e7c9      	b.n	800202e <HAL_DMA_Init+0x42>
    tmp |=  hdma->Init.MemBurst | hdma->Init.PeriphBurst;
 800209a:	6ae1      	ldr	r1, [r4, #44]	@ 0x2c
 800209c:	6b20      	ldr	r0, [r4, #48]	@ 0x30
 800209e:	4301      	orrs	r1, r0
 80020a0:	430a      	orrs	r2, r1
 80020a2:	e7db      	b.n	800205c <HAL_DMA_Init+0x70>
        hdma->ErrorCode = HAL_DMA_ERROR_PARAM;
 80020a4:	2340      	movs	r3, #64	@ 0x40
 80020a6:	6563      	str	r3, [r4, #84]	@ 0x54
        hdma->State = HAL_DMA_STATE_READY;
 80020a8:	2001      	movs	r0, #1
 80020aa:	f884 0035 	strb.w	r0, [r4, #53]	@ 0x35
        return HAL_ERROR; 
 80020ae:	e7be      	b.n	800202e <HAL_DMA_Init+0x42>
    return HAL_ERROR;
 80020b0:	2001      	movs	r0, #1
 80020b2:	e7bc      	b.n	800202e <HAL_DMA_Init+0x42>
 80020b4:	f010803f 	.word	0xf010803f

080020b8 <HAL_DMA_Start_IT>:
{
 80020b8:	b538      	push	{r3, r4, r5, lr}
 80020ba:	4604      	mov	r4, r0
  DMA_Base_Registers *regs = (DMA_Base_Registers *)hdma->StreamBaseAddress;
 80020bc:	6d85      	ldr	r5, [r0, #88]	@ 0x58
  __HAL_LOCK(hdma);
 80020be:	f890 0034 	ldrb.w	r0, [r0, #52]	@ 0x34
 80020c2:	2801      	cmp	r0, #1
 80020c4:	d02b      	beq.n	800211e <HAL_DMA_Start_IT+0x66>
 80020c6:	2001      	movs	r0, #1
 80020c8:	f884 0034 	strb.w	r0, [r4, #52]	@ 0x34
  if(HAL_DMA_STATE_READY == hdma->State)
 80020cc:	f894 0035 	ldrb.w	r0, [r4, #53]	@ 0x35
 80020d0:	b2c0      	uxtb	r0, r0
 80020d2:	2801      	cmp	r0, #1
 80020d4:	d004      	beq.n	80020e0 <HAL_DMA_Start_IT+0x28>
    __HAL_UNLOCK(hdma);	  
 80020d6:	2300      	movs	r3, #0
 80020d8:	f884 3034 	strb.w	r3, [r4, #52]	@ 0x34
    status = HAL_BUSY;
 80020dc:	2002      	movs	r0, #2
}
 80020de:	bd38      	pop	{r3, r4, r5, pc}
    hdma->State = HAL_DMA_STATE_BUSY;
 80020e0:	2002      	movs	r0, #2
 80020e2:	f884 0035 	strb.w	r0, [r4, #53]	@ 0x35
    hdma->ErrorCode = HAL_DMA_ERROR_NONE;
 80020e6:	2000      	movs	r0, #0
 80020e8:	6560      	str	r0, [r4, #84]	@ 0x54
    DMA_SetConfig(hdma, SrcAddress, DstAddress, DataLength);
 80020ea:	4620      	mov	r0, r4
 80020ec:	f7ff fefd 	bl	8001eea <DMA_SetConfig>
    regs->IFCR = 0x3FU << hdma->StreamIndex;
 80020f0:	6de2      	ldr	r2, [r4, #92]	@ 0x5c
 80020f2:	233f      	movs	r3, #63	@ 0x3f
 80020f4:	4093      	lsls	r3, r2
 80020f6:	60ab      	str	r3, [r5, #8]
    hdma->Instance->CR  |= DMA_IT_TC | DMA_IT_TE | DMA_IT_DME;
 80020f8:	6822      	ldr	r2, [r4, #0]
 80020fa:	6813      	ldr	r3, [r2, #0]
 80020fc:	f043 0316 	orr.w	r3, r3, #22
 8002100:	6013      	str	r3, [r2, #0]
    if(hdma->XferHalfCpltCallback != NULL)
 8002102:	6c23      	ldr	r3, [r4, #64]	@ 0x40
 8002104:	b123      	cbz	r3, 8002110 <HAL_DMA_Start_IT+0x58>
      hdma->Instance->CR  |= DMA_IT_HT;
 8002106:	6822      	ldr	r2, [r4, #0]
 8002108:	6813      	ldr	r3, [r2, #0]
 800210a:	f043 0308 	orr.w	r3, r3, #8
 800210e:	6013      	str	r3, [r2, #0]
    __HAL_DMA_ENABLE(hdma);
 8002110:	6822      	ldr	r2, [r4, #0]
 8002112:	6813      	ldr	r3, [r2, #0]
 8002114:	f043 0301 	orr.w	r3, r3, #1
 8002118:	6013      	str	r3, [r2, #0]
  HAL_StatusTypeDef status = HAL_OK;
 800211a:	2000      	movs	r0, #0
 800211c:	e7df      	b.n	80020de <HAL_DMA_Start_IT+0x26>
  __HAL_LOCK(hdma);
 800211e:	2002      	movs	r0, #2
 8002120:	e7dd      	b.n	80020de <HAL_DMA_Start_IT+0x26>
	...

08002124 <HAL_GPIO_Init>:
  assert_param(IS_GPIO_ALL_INSTANCE(GPIOx));
  assert_param(IS_GPIO_PIN(GPIO_Init->Pin));
  assert_param(IS_GPIO_MODE(GPIO_Init->Mode));

  /* Configure the port pins */
  for(position = 0U; position < GPIO_NUMBER; position++)
 8002124:	2300      	movs	r3, #0
 8002126:	2b0f      	cmp	r3, #15
 8002128:	f200 80f6 	bhi.w	8002318 <HAL_GPIO_Init+0x1f4>
{
 800212c:	b570      	push	{r4, r5, r6, lr}
 800212e:	b082      	sub	sp, #8
 8002130:	e066      	b.n	8002200 <HAL_GPIO_Init+0xdc>
          (GPIO_Init->Mode & GPIO_MODE) == MODE_AF)
      {
        /* Check the Speed parameter */
        assert_param(IS_GPIO_SPEED(GPIO_Init->Speed));
        /* Configure the IO Speed */
        temp = GPIOx->OSPEEDR; 
 8002132:	6885      	ldr	r5, [r0, #8]
        temp &= ~(GPIO_OSPEEDER_OSPEEDR0 << (position * 2U));
 8002134:	ea4f 0e43 	mov.w	lr, r3, lsl #1
 8002138:	2403      	movs	r4, #3
 800213a:	fa04 f40e 	lsl.w	r4, r4, lr
 800213e:	ea25 0504 	bic.w	r5, r5, r4
        temp |= (GPIO_Init->Speed << (position * 2U));
 8002142:	68cc      	ldr	r4, [r1, #12]
 8002144:	fa04 f40e 	lsl.w	r4, r4, lr
 8002148:	432c      	orrs	r4, r5
        GPIOx->OSPEEDR = temp;
 800214a:	6084      	str	r4, [r0, #8]

        /* Configure the IO Output Type */
        temp = GPIOx->OTYPER;
 800214c:	6844      	ldr	r4, [r0, #4]
        temp &= ~(GPIO_OTYPER_OT_0 << position) ;
 800214e:	ea24 0402 	bic.w	r4, r4, r2
        temp |= (((GPIO_Init->Mode & OUTPUT_TYPE) >> OUTPUT_TYPE_Pos) << position);
 8002152:	684a      	ldr	r2, [r1, #4]
 8002154:	f3c2 1200 	ubfx	r2, r2, #4, #1
 8002158:	409a      	lsls	r2, r3
 800215a:	4322      	orrs	r2, r4
        GPIOx->OTYPER = temp;
 800215c:	6042      	str	r2, [r0, #4]
 800215e:	e05d      	b.n	800221c <HAL_GPIO_Init+0xf8>
      if((GPIO_Init->Mode & GPIO_MODE) == MODE_AF)
      {
        /* Check the Alternate function parameter */
        assert_param(IS_GPIO_AF(GPIO_Init->Alternate));
        /* Configure Alternate function mapped with the current IO */
        temp = GPIOx->AFR[position >> 3U];
 8002160:	08dc      	lsrs	r4, r3, #3
 8002162:	3408      	adds	r4, #8
 8002164:	f850 2024 	ldr.w	r2, [r0, r4, lsl #2]
        temp &= ~(0xFU << ((uint32_t)(position & 0x07U) * 4U)) ;
 8002168:	f003 0507 	and.w	r5, r3, #7
 800216c:	00ad      	lsls	r5, r5, #2
 800216e:	f04f 0e0f 	mov.w	lr, #15
 8002172:	fa0e fe05 	lsl.w	lr, lr, r5
 8002176:	ea22 0e0e 	bic.w	lr, r2, lr
        temp |= ((uint32_t)(GPIO_Init->Alternate) << (((uint32_t)position & 0x07U) * 4U));
 800217a:	690a      	ldr	r2, [r1, #16]
 800217c:	40aa      	lsls	r2, r5
 800217e:	ea42 020e 	orr.w	r2, r2, lr
        GPIOx->AFR[position >> 3U] = temp;
 8002182:	f840 2024 	str.w	r2, [r0, r4, lsl #2]
 8002186:	e05d      	b.n	8002244 <HAL_GPIO_Init+0x120>
        /* Enable SYSCFG Clock */
        __HAL_RCC_SYSCFG_CLK_ENABLE();

        temp = SYSCFG->EXTICR[position >> 2U];
        temp &= ~(0x0FU << (4U * (position & 0x03U)));
        temp |= ((uint32_t)(GPIO_GET_INDEX(GPIOx)) << (4U * (position & 0x03U)));
 8002188:	2209      	movs	r2, #9
 800218a:	e000      	b.n	800218e <HAL_GPIO_Init+0x6a>
 800218c:	2200      	movs	r2, #0
 800218e:	fa02 f20e 	lsl.w	r2, r2, lr
 8002192:	432a      	orrs	r2, r5
        SYSCFG->EXTICR[position >> 2U] = temp;
 8002194:	3402      	adds	r4, #2
 8002196:	4d61      	ldr	r5, [pc, #388]	@ (800231c <HAL_GPIO_Init+0x1f8>)
 8002198:	f845 2024 	str.w	r2, [r5, r4, lsl #2]

        /* Clear Rising Falling edge configuration */
        temp = EXTI->RTSR;
 800219c:	4a60      	ldr	r2, [pc, #384]	@ (8002320 <HAL_GPIO_Init+0x1fc>)
 800219e:	6894      	ldr	r4, [r2, #8]
        temp &= ~((uint32_t)iocurrent);
 80021a0:	ea6f 020c 	mvn.w	r2, ip
 80021a4:	ea24 050c 	bic.w	r5, r4, ip
        if((GPIO_Init->Mode & TRIGGER_RISING) != 0x00U)
 80021a8:	684e      	ldr	r6, [r1, #4]
 80021aa:	f416 1f80 	tst.w	r6, #1048576	@ 0x100000
 80021ae:	d001      	beq.n	80021b4 <HAL_GPIO_Init+0x90>
        {
          temp |= iocurrent;
 80021b0:	ea4c 0504 	orr.w	r5, ip, r4
        }
        EXTI->RTSR = temp;
 80021b4:	4c5a      	ldr	r4, [pc, #360]	@ (8002320 <HAL_GPIO_Init+0x1fc>)
 80021b6:	60a5      	str	r5, [r4, #8]

        temp = EXTI->FTSR;
 80021b8:	68e4      	ldr	r4, [r4, #12]
        temp &= ~((uint32_t)iocurrent);
 80021ba:	ea02 0504 	and.w	r5, r2, r4
        if((GPIO_Init->Mode & TRIGGER_FALLING) != 0x00U)
 80021be:	684e      	ldr	r6, [r1, #4]
 80021c0:	f416 1f00 	tst.w	r6, #2097152	@ 0x200000
 80021c4:	d001      	beq.n	80021ca <HAL_GPIO_Init+0xa6>
        {
          temp |= iocurrent;
 80021c6:	ea4c 0504 	orr.w	r5, ip, r4
        }
        EXTI->FTSR = temp;
 80021ca:	4c55      	ldr	r4, [pc, #340]	@ (8002320 <HAL_GPIO_Init+0x1fc>)
 80021cc:	60e5      	str	r5, [r4, #12]

        temp = EXTI->EMR;
 80021ce:	6864      	ldr	r4, [r4, #4]
        temp &= ~((uint32_t)iocurrent);
 80021d0:	ea02 0504 	and.w	r5, r2, r4
        if((GPIO_Init->Mode & EXTI_EVT) != 0x00U)
 80021d4:	684e      	ldr	r6, [r1, #4]
 80021d6:	f416 3f00 	tst.w	r6, #131072	@ 0x20000
 80021da:	d001      	beq.n	80021e0 <HAL_GPIO_Init+0xbc>
        {
          temp |= iocurrent;
 80021dc:	ea4c 0504 	orr.w	r5, ip, r4
        }
        EXTI->EMR = temp;
 80021e0:	4c4f      	ldr	r4, [pc, #316]	@ (8002320 <HAL_GPIO_Init+0x1fc>)
 80021e2:	6065      	str	r5, [r4, #4]

        /* Clear EXTI line configuration */
        temp = EXTI->IMR;
 80021e4:	6824      	ldr	r4, [r4, #0]
        temp &= ~((uint32_t)iocurrent);
 80021e6:	4022      	ands	r2, r4
        if((GPIO_Init->Mode & EXTI_IT) != 0x00U)
 80021e8:	684d      	ldr	r5, [r1, #4]
 80021ea:	f415 3f80 	tst.w	r5, #65536	@ 0x10000
 80021ee:	d001      	beq.n	80021f4 <HAL_GPIO_Init+0xd0>
        {
          temp |= iocurrent;
 80021f0:	ea4c 0204 	orr.w	r2, ip, r4
        }
        EXTI->IMR = temp;
 80021f4:	4c4a      	ldr	r4, [pc, #296]	@ (8002320 <HAL_GPIO_Init+0x1fc>)
 80021f6:	6022      	str	r2, [r4, #0]
  for(position = 0U; position < GPIO_NUMBER; position++)
 80021f8:	3301      	adds	r3, #1
 80021fa:	2b0f      	cmp	r3, #15
 80021fc:	f200 808a 	bhi.w	8002314 <HAL_GPIO_Init+0x1f0>
    ioposition = 0x01U << position;
 8002200:	2201      	movs	r2, #1
 8002202:	409a      	lsls	r2, r3
    iocurrent = (uint32_t)(GPIO_Init->Pin) & ioposition;
 8002204:	680c      	ldr	r4, [r1, #0]
 8002206:	ea04 0c02 	and.w	ip, r4, r2
    if(iocurrent == ioposition)
 800220a:	ea32 0404 	bics.w	r4, r2, r4
 800220e:	d1f3      	bne.n	80021f8 <HAL_GPIO_Init+0xd4>
      if(((GPIO_Init->Mode & GPIO_MODE) == MODE_OUTPUT) || \
 8002210:	684c      	ldr	r4, [r1, #4]
 8002212:	f004 0403 	and.w	r4, r4, #3
 8002216:	3c01      	subs	r4, #1
 8002218:	2c01      	cmp	r4, #1
 800221a:	d98a      	bls.n	8002132 <HAL_GPIO_Init+0xe>
      if((GPIO_Init->Mode & GPIO_MODE) != MODE_ANALOG)
 800221c:	684a      	ldr	r2, [r1, #4]
 800221e:	f002 0203 	and.w	r2, r2, #3
 8002222:	2a03      	cmp	r2, #3
 8002224:	d009      	beq.n	800223a <HAL_GPIO_Init+0x116>
        temp = GPIOx->PUPDR;
 8002226:	68c4      	ldr	r4, [r0, #12]
        temp &= ~(GPIO_PUPDR_PUPDR0 << (position * 2U));
 8002228:	005d      	lsls	r5, r3, #1
 800222a:	2203      	movs	r2, #3
 800222c:	40aa      	lsls	r2, r5
 800222e:	ea24 0402 	bic.w	r4, r4, r2
        temp |= ((GPIO_Init->Pull) << (position * 2U));
 8002232:	688a      	ldr	r2, [r1, #8]
 8002234:	40aa      	lsls	r2, r5
 8002236:	4322      	orrs	r2, r4
        GPIOx->PUPDR = temp;
 8002238:	60c2      	str	r2, [r0, #12]
      if((GPIO_Init->Mode & GPIO_MODE) == MODE_AF)
 800223a:	684a      	ldr	r2, [r1, #4]
 800223c:	f002 0203 	and.w	r2, r2, #3
 8002240:	2a02      	cmp	r2, #2
 8002242:	d08d      	beq.n	8002160 <HAL_GPIO_Init+0x3c>
      temp = GPIOx->MODER;
 8002244:	6804      	ldr	r4, [r0, #0]
      temp &= ~(GPIO_MODER_MODER0 << (position * 2U));
 8002246:	ea4f 0e43 	mov.w	lr, r3, lsl #1
 800224a:	2203      	movs	r2, #3
 800224c:	fa02 f20e 	lsl.w	r2, r2, lr
 8002250:	ea24 0402 	bic.w	r4, r4, r2
      temp |= ((GPIO_Init->Mode & GPIO_MODE) << (position * 2U));
 8002254:	684a      	ldr	r2, [r1, #4]
 8002256:	f002 0203 	and.w	r2, r2, #3
 800225a:	fa02 f20e 	lsl.w	r2, r2, lr
 800225e:	4322      	orrs	r2, r4
      GPIOx->MODER = temp;
 8002260:	6002      	str	r2, [r0, #0]
      if((GPIO_Init->Mode & EXTI_MODE) != 0x00U)
 8002262:	684a      	ldr	r2, [r1, #4]
 8002264:	f412 3f40 	tst.w	r2, #196608	@ 0x30000
 8002268:	d0c6      	beq.n	80021f8 <HAL_GPIO_Init+0xd4>
        __HAL_RCC_SYSCFG_CLK_ENABLE();
 800226a:	2200      	movs	r2, #0
 800226c:	9201      	str	r2, [sp, #4]
 800226e:	4a2d      	ldr	r2, [pc, #180]	@ (8002324 <HAL_GPIO_Init+0x200>)
 8002270:	6c54      	ldr	r4, [r2, #68]	@ 0x44
 8002272:	f444 4480 	orr.w	r4, r4, #16384	@ 0x4000
 8002276:	6454      	str	r4, [r2, #68]	@ 0x44
 8002278:	6c52      	ldr	r2, [r2, #68]	@ 0x44
 800227a:	f402 4280 	and.w	r2, r2, #16384	@ 0x4000
 800227e:	9201      	str	r2, [sp, #4]
 8002280:	9a01      	ldr	r2, [sp, #4]
        temp = SYSCFG->EXTICR[position >> 2U];
 8002282:	089c      	lsrs	r4, r3, #2
 8002284:	1ca5      	adds	r5, r4, #2
 8002286:	4a25      	ldr	r2, [pc, #148]	@ (800231c <HAL_GPIO_Init+0x1f8>)
 8002288:	f852 5025 	ldr.w	r5, [r2, r5, lsl #2]
        temp &= ~(0x0FU << (4U * (position & 0x03U)));
 800228c:	f003 0e03 	and.w	lr, r3, #3
 8002290:	ea4f 0e8e 	mov.w	lr, lr, lsl #2
 8002294:	220f      	movs	r2, #15
 8002296:	fa02 f20e 	lsl.w	r2, r2, lr
 800229a:	ea25 0502 	bic.w	r5, r5, r2
        temp |= ((uint32_t)(GPIO_GET_INDEX(GPIOx)) << (4U * (position & 0x03U)));
 800229e:	4a22      	ldr	r2, [pc, #136]	@ (8002328 <HAL_GPIO_Init+0x204>)
 80022a0:	4290      	cmp	r0, r2
 80022a2:	f43f af73 	beq.w	800218c <HAL_GPIO_Init+0x68>
 80022a6:	f502 6280 	add.w	r2, r2, #1024	@ 0x400
 80022aa:	4290      	cmp	r0, r2
 80022ac:	d022      	beq.n	80022f4 <HAL_GPIO_Init+0x1d0>
 80022ae:	f502 6280 	add.w	r2, r2, #1024	@ 0x400
 80022b2:	4290      	cmp	r0, r2
 80022b4:	d020      	beq.n	80022f8 <HAL_GPIO_Init+0x1d4>
 80022b6:	f502 6280 	add.w	r2, r2, #1024	@ 0x400
 80022ba:	4290      	cmp	r0, r2
 80022bc:	d01e      	beq.n	80022fc <HAL_GPIO_Init+0x1d8>
 80022be:	f502 6280 	add.w	r2, r2, #1024	@ 0x400
 80022c2:	4290      	cmp	r0, r2
 80022c4:	d01c      	beq.n	8002300 <HAL_GPIO_Init+0x1dc>
 80022c6:	f502 6280 	add.w	r2, r2, #1024	@ 0x400
 80022ca:	4290      	cmp	r0, r2
 80022cc:	d01a      	beq.n	8002304 <HAL_GPIO_Init+0x1e0>
 80022ce:	f502 6280 	add.w	r2, r2, #1024	@ 0x400
 80022d2:	4290      	cmp	r0, r2
 80022d4:	d018      	beq.n	8002308 <HAL_GPIO_Init+0x1e4>
 80022d6:	f502 6280 	add.w	r2, r2, #1024	@ 0x400
 80022da:	4290      	cmp	r0, r2
 80022dc:	d016      	beq.n	800230c <HAL_GPIO_Init+0x1e8>
 80022de:	f502 6280 	add.w	r2, r2, #1024	@ 0x400
 80022e2:	4290      	cmp	r0, r2
 80022e4:	d014      	beq.n	8002310 <HAL_GPIO_Init+0x1ec>
 80022e6:	f502 6280 	add.w	r2, r2, #1024	@ 0x400
 80022ea:	4290      	cmp	r0, r2
 80022ec:	f43f af4c 	beq.w	8002188 <HAL_GPIO_Init+0x64>
 80022f0:	220a      	movs	r2, #10
 80022f2:	e74c      	b.n	800218e <HAL_GPIO_Init+0x6a>
 80022f4:	2201      	movs	r2, #1
 80022f6:	e74a      	b.n	800218e <HAL_GPIO_Init+0x6a>
 80022f8:	2202      	movs	r2, #2
 80022fa:	e748      	b.n	800218e <HAL_GPIO_Init+0x6a>
 80022fc:	2203      	movs	r2, #3
 80022fe:	e746      	b.n	800218e <HAL_GPIO_Init+0x6a>
 8002300:	2204      	movs	r2, #4
 8002302:	e744      	b.n	800218e <HAL_GPIO_Init+0x6a>
 8002304:	2205      	movs	r2, #5
 8002306:	e742      	b.n	800218e <HAL_GPIO_Init+0x6a>
 8002308:	2206      	movs	r2, #6
 800230a:	e740      	b.n	800218e <HAL_GPIO_Init+0x6a>
 800230c:	2207      	movs	r2, #7
 800230e:	e73e      	b.n	800218e <HAL_GPIO_Init+0x6a>
 8002310:	2208      	movs	r2, #8
 8002312:	e73c      	b.n	800218e <HAL_GPIO_Init+0x6a>
      }
    }
  }
}
 8002314:	b002      	add	sp, #8
 8002316:	bd70      	pop	{r4, r5, r6, pc}
 8002318:	4770      	bx	lr
 800231a:	bf00      	nop
 800231c:	40013800 	.word	0x40013800
 8002320:	40013c00 	.word	0x40013c00
 8002324:	40023800 	.word	0x40023800
 8002328:	40020000 	.word	0x40020000

0800232c <HAL_GPIO_WritePin>:
{
  /* Check the parameters */
  assert_param(IS_GPIO_PIN(GPIO_Pin));
  assert_param(IS_GPIO_PIN_ACTION(PinState));

  if(PinState != GPIO_PIN_RESET)
 800232c:	b10a      	cbz	r2, 8002332 <HAL_GPIO_WritePin+0x6>
  {
    GPIOx->BSRR = GPIO_Pin;
 800232e:	6181      	str	r1, [r0, #24]
 8002330:	4770      	bx	lr
  }
  else
  {
    GPIOx->BSRR = (uint32_t)GPIO_Pin << 16U;
 8002332:	0409      	lsls	r1, r1, #16
 8002334:	6181      	str	r1, [r0, #24]
  }
}
 8002336:	4770      	bx	lr

08002338 <HAL_GPIO_TogglePin>:

  /* Check the parameters */
  assert_param(IS_GPIO_PIN(GPIO_Pin));

  /* get current Output Data Register value */
  odr = GPIOx->ODR;
 8002338:	6943      	ldr	r3, [r0, #20]

  /* Set selected pins that were at low level, and reset ones that were high */
  GPIOx->BSRR = ((odr & GPIO_Pin) << GPIO_NUMBER) | (~odr & GPIO_Pin);
 800233a:	ea01 0203 	and.w	r2, r1, r3
 800233e:	ea21 0103 	bic.w	r1, r1, r3
 8002342:	ea41 4102 	orr.w	r1, r1, r2, lsl #16
 8002346:	6181      	str	r1, [r0, #24]
}
 8002348:	4770      	bx	lr
	...

0800234c <HAL_I2C_Init>:
{
  uint32_t freqrange;
  uint32_t pclk1;

  /* Check the I2C handle allocation */
  if (hi2c == NULL)
 800234c:	2800      	cmp	r0, #0
 800234e:	f000 80cc 	beq.w	80024ea <HAL_I2C_Init+0x19e>
{
 8002352:	b570      	push	{r4, r5, r6, lr}
 8002354:	4604      	mov	r4, r0
  assert_param(IS_I2C_DUAL_ADDRESS(hi2c->Init.DualAddressMode));
  assert_param(IS_I2C_OWN_ADDRESS2(hi2c->Init.OwnAddress2));
  assert_param(IS_I2C_GENERAL_CALL(hi2c->Init.GeneralCallMode));
  assert_param(IS_I2C_NO_STRETCH(hi2c->Init.NoStretchMode));

  if (hi2c->State == HAL_I2C_STATE_RESET)
 8002356:	f890 303d 	ldrb.w	r3, [r0, #61]	@ 0x3d
 800235a:	2b00      	cmp	r3, #0
 800235c:	d077      	beq.n	800244e <HAL_I2C_Init+0x102>
    /* Init the low level hardware : GPIO, CLOCK, NVIC */
    HAL_I2C_MspInit(hi2c);
#endif /* USE_HAL_I2C_REGISTER_CALLBACKS */
  }

  hi2c->State = HAL_I2C_STATE_BUSY;
 800235e:	2324      	movs	r3, #36	@ 0x24
 8002360:	f884 303d 	strb.w	r3, [r4, #61]	@ 0x3d

  /* Disable the selected I2C peripheral */
  __HAL_I2C_DISABLE(hi2c);
 8002364:	6822      	ldr	r2, [r4, #0]
 8002366:	6813      	ldr	r3, [r2, #0]
 8002368:	f023 0301 	bic.w	r3, r3, #1
 800236c:	6013      	str	r3, [r2, #0]

  /*Reset I2C*/
  hi2c->Instance->CR1 |= I2C_CR1_SWRST;
 800236e:	6822      	ldr	r2, [r4, #0]
 8002370:	6813      	ldr	r3, [r2, #0]
 8002372:	f443 4300 	orr.w	r3, r3, #32768	@ 0x8000
 8002376:	6013      	str	r3, [r2, #0]
  hi2c->Instance->CR1 &= ~I2C_CR1_SWRST;
 8002378:	6822      	ldr	r2, [r4, #0]
 800237a:	6813      	ldr	r3, [r2, #0]
 800237c:	f423 4300 	bic.w	r3, r3, #32768	@ 0x8000
 8002380:	6013      	str	r3, [r2, #0]

  /* Get PCLK1 frequency */
  pclk1 = HAL_RCC_GetPCLK1Freq();
 8002382:	f000 faff 	bl	8002984 <HAL_RCC_GetPCLK1Freq>

  /* Check the minimum allowed PCLK1 frequency */
  if (I2C_MIN_PCLK_FREQ(pclk1, hi2c->Init.ClockSpeed) == 1U)
 8002386:	6862      	ldr	r2, [r4, #4]
 8002388:	4b5a      	ldr	r3, [pc, #360]	@ (80024f4 <HAL_I2C_Init+0x1a8>)
 800238a:	429a      	cmp	r2, r3
 800238c:	d864      	bhi.n	8002458 <HAL_I2C_Init+0x10c>
 800238e:	4b5a      	ldr	r3, [pc, #360]	@ (80024f8 <HAL_I2C_Init+0x1ac>)
 8002390:	4298      	cmp	r0, r3
 8002392:	bf8c      	ite	hi
 8002394:	2300      	movhi	r3, #0
 8002396:	2301      	movls	r3, #1
 8002398:	2b00      	cmp	r3, #0
 800239a:	f040 80a8 	bne.w	80024ee <HAL_I2C_Init+0x1a2>
  {
    return HAL_ERROR;
  }

  /* Calculate frequency range */
  freqrange = I2C_FREQRANGE(pclk1);
 800239e:	4957      	ldr	r1, [pc, #348]	@ (80024fc <HAL_I2C_Init+0x1b0>)
 80023a0:	fba1 3100 	umull	r3, r1, r1, r0
 80023a4:	0c8b      	lsrs	r3, r1, #18

  /*---------------------------- I2Cx CR2 Configuration ----------------------*/
  /* Configure I2Cx: Frequency range */
  MODIFY_REG(hi2c->Instance->CR2, I2C_CR2_FREQ, freqrange);
 80023a6:	6825      	ldr	r5, [r4, #0]
 80023a8:	686a      	ldr	r2, [r5, #4]
 80023aa:	f022 023f 	bic.w	r2, r2, #63	@ 0x3f
 80023ae:	ea42 4291 	orr.w	r2, r2, r1, lsr #18
 80023b2:	606a      	str	r2, [r5, #4]

  /*---------------------------- I2Cx TRISE Configuration --------------------*/
  /* Configure I2Cx: Rise Time */
  MODIFY_REG(hi2c->Instance->TRISE, I2C_TRISE_TRISE, I2C_RISE_TIME(freqrange, hi2c->Init.ClockSpeed));
 80023b4:	6821      	ldr	r1, [r4, #0]
 80023b6:	6a0a      	ldr	r2, [r1, #32]
 80023b8:	f022 023f 	bic.w	r2, r2, #63	@ 0x3f
 80023bc:	6866      	ldr	r6, [r4, #4]
 80023be:	4d4d      	ldr	r5, [pc, #308]	@ (80024f4 <HAL_I2C_Init+0x1a8>)
 80023c0:	42ae      	cmp	r6, r5
 80023c2:	d84f      	bhi.n	8002464 <HAL_I2C_Init+0x118>
 80023c4:	3301      	adds	r3, #1
 80023c6:	4313      	orrs	r3, r2
 80023c8:	620b      	str	r3, [r1, #32]

  /*---------------------------- I2Cx CCR Configuration ----------------------*/
  /* Configure I2Cx: Speed */
  MODIFY_REG(hi2c->Instance->CCR, (I2C_CCR_FS | I2C_CCR_DUTY | I2C_CCR_CCR), I2C_SPEED(pclk1, hi2c->Init.ClockSpeed, hi2c->Init.DutyCycle));
 80023ca:	6821      	ldr	r1, [r4, #0]
 80023cc:	69ca      	ldr	r2, [r1, #28]
 80023ce:	f422 424f 	bic.w	r2, r2, #52992	@ 0xcf00
 80023d2:	f022 02ff 	bic.w	r2, r2, #255	@ 0xff
 80023d6:	6865      	ldr	r5, [r4, #4]
 80023d8:	4b46      	ldr	r3, [pc, #280]	@ (80024f4 <HAL_I2C_Init+0x1a8>)
 80023da:	429d      	cmp	r5, r3
 80023dc:	d84c      	bhi.n	8002478 <HAL_I2C_Init+0x12c>
 80023de:	1e43      	subs	r3, r0, #1
 80023e0:	006d      	lsls	r5, r5, #1
 80023e2:	fbb3 f3f5 	udiv	r3, r3, r5
 80023e6:	3301      	adds	r3, #1
 80023e8:	f640 70fc 	movw	r0, #4092	@ 0xffc
 80023ec:	4203      	tst	r3, r0
 80023ee:	d078      	beq.n	80024e2 <HAL_I2C_Init+0x196>
 80023f0:	f3c3 030b 	ubfx	r3, r3, #0, #12
 80023f4:	431a      	orrs	r2, r3
 80023f6:	61ca      	str	r2, [r1, #28]

  /*---------------------------- I2Cx CR1 Configuration ----------------------*/
  /* Configure I2Cx: Generalcall and NoStretch mode */
  MODIFY_REG(hi2c->Instance->CR1, (I2C_CR1_ENGC | I2C_CR1_NOSTRETCH), (hi2c->Init.GeneralCallMode | hi2c->Init.NoStretchMode));
 80023f8:	6821      	ldr	r1, [r4, #0]
 80023fa:	680b      	ldr	r3, [r1, #0]
 80023fc:	f023 03c0 	bic.w	r3, r3, #192	@ 0xc0
 8002400:	69e2      	ldr	r2, [r4, #28]
 8002402:	6a20      	ldr	r0, [r4, #32]
 8002404:	4302      	orrs	r2, r0
 8002406:	4313      	orrs	r3, r2
 8002408:	600b      	str	r3, [r1, #0]

  /*---------------------------- I2Cx OAR1 Configuration ---------------------*/
  /* Configure I2Cx: Own Address1 and addressing mode */
  MODIFY_REG(hi2c->Instance->OAR1, (I2C_OAR1_ADDMODE | I2C_OAR1_ADD8_9 | I2C_OAR1_ADD1_7 | I2C_OAR1_ADD0), (hi2c->Init.AddressingMode | hi2c->Init.OwnAddress1));
 800240a:	6821      	ldr	r1, [r4, #0]
 800240c:	688b      	ldr	r3, [r1, #8]
 800240e:	f423 4303 	bic.w	r3, r3, #33536	@ 0x8300
 8002412:	f023 03ff 	bic.w	r3, r3, #255	@ 0xff
 8002416:	6922      	ldr	r2, [r4, #16]
 8002418:	68e0      	ldr	r0, [r4, #12]
 800241a:	4302      	orrs	r2, r0
 800241c:	4313      	orrs	r3, r2
 800241e:	608b      	str	r3, [r1, #8]

  /*---------------------------- I2Cx OAR2 Configuration ---------------------*/
  /* Configure I2Cx: Dual mode and Own Address2 */
  MODIFY_REG(hi2c->Instance->OAR2, (I2C_OAR2_ENDUAL | I2C_OAR2_ADD2), (hi2c->Init.DualAddressMode | hi2c->Init.OwnAddress2));
 8002420:	6821      	ldr	r1, [r4, #0]
 8002422:	68cb      	ldr	r3, [r1, #12]
 8002424:	f023 03ff 	bic.w	r3, r3, #255	@ 0xff
 8002428:	6962      	ldr	r2, [r4, #20]
 800242a:	69a0      	ldr	r0, [r4, #24]
 800242c:	4302      	orrs	r2, r0
 800242e:	4313      	orrs	r3, r2
 8002430:	60cb      	str	r3, [r1, #12]

  /* Enable the selected I2C peripheral */
  __HAL_I2C_ENABLE(hi2c);
 8002432:	6822      	ldr	r2, [r4, #0]
 8002434:	6813      	ldr	r3, [r2, #0]
 8002436:	f043 0301 	orr.w	r3, r3, #1
 800243a:	6013      	str	r3, [r2, #0]

  hi2c->ErrorCode = HAL_I2C_ERROR_NONE;
 800243c:	2000      	movs	r0, #0
 800243e:	6420      	str	r0, [r4, #64]	@ 0x40
  hi2c->State = HAL_I2C_STATE_READY;
 8002440:	2320      	movs	r3, #32
 8002442:	f884 303d 	strb.w	r3, [r4, #61]	@ 0x3d
  hi2c->PreviousState = I2C_STATE_NONE;
 8002446:	6320      	str	r0, [r4, #48]	@ 0x30
  hi2c->Mode = HAL_I2C_MODE_NONE;
 8002448:	f884 003e 	strb.w	r0, [r4, #62]	@ 0x3e

  return HAL_OK;
}
 800244c:	bd70      	pop	{r4, r5, r6, pc}
    hi2c->Lock = HAL_UNLOCKED;
 800244e:	f880 303c 	strb.w	r3, [r0, #60]	@ 0x3c
    HAL_I2C_MspInit(hi2c);
 8002452:	f7fe ff29 	bl	80012a8 <HAL_I2C_MspInit>
 8002456:	e782      	b.n	800235e <HAL_I2C_Init+0x12>
  if (I2C_MIN_PCLK_FREQ(pclk1, hi2c->Init.ClockSpeed) == 1U)
 8002458:	4b29      	ldr	r3, [pc, #164]	@ (8002500 <HAL_I2C_Init+0x1b4>)
 800245a:	4298      	cmp	r0, r3
 800245c:	bf8c      	ite	hi
 800245e:	2300      	movhi	r3, #0
 8002460:	2301      	movls	r3, #1
 8002462:	e799      	b.n	8002398 <HAL_I2C_Init+0x4c>
  MODIFY_REG(hi2c->Instance->TRISE, I2C_TRISE_TRISE, I2C_RISE_TIME(freqrange, hi2c->Init.ClockSpeed));
 8002464:	f44f 7596 	mov.w	r5, #300	@ 0x12c
 8002468:	fb05 f303 	mul.w	r3, r5, r3
 800246c:	4d25      	ldr	r5, [pc, #148]	@ (8002504 <HAL_I2C_Init+0x1b8>)
 800246e:	fba5 5303 	umull	r5, r3, r5, r3
 8002472:	099b      	lsrs	r3, r3, #6
 8002474:	3301      	adds	r3, #1
 8002476:	e7a6      	b.n	80023c6 <HAL_I2C_Init+0x7a>
  MODIFY_REG(hi2c->Instance->CCR, (I2C_CCR_FS | I2C_CCR_DUTY | I2C_CCR_CCR), I2C_SPEED(pclk1, hi2c->Init.ClockSpeed, hi2c->Init.DutyCycle));
 8002478:	68a6      	ldr	r6, [r4, #8]
 800247a:	b9be      	cbnz	r6, 80024ac <HAL_I2C_Init+0x160>
 800247c:	1e43      	subs	r3, r0, #1
 800247e:	eb05 0c45 	add.w	ip, r5, r5, lsl #1
 8002482:	fbb3 f3fc 	udiv	r3, r3, ip
 8002486:	3301      	adds	r3, #1
 8002488:	f3c3 030b 	ubfx	r3, r3, #0, #12
 800248c:	fab3 f383 	clz	r3, r3
 8002490:	095b      	lsrs	r3, r3, #5
 8002492:	bb43      	cbnz	r3, 80024e6 <HAL_I2C_Init+0x19a>
 8002494:	b9c6      	cbnz	r6, 80024c8 <HAL_I2C_Init+0x17c>
 8002496:	1e43      	subs	r3, r0, #1
 8002498:	eb05 0545 	add.w	r5, r5, r5, lsl #1
 800249c:	fbb3 f3f5 	udiv	r3, r3, r5
 80024a0:	3301      	adds	r3, #1
 80024a2:	f3c3 030b 	ubfx	r3, r3, #0, #12
 80024a6:	f443 4300 	orr.w	r3, r3, #32768	@ 0x8000
 80024aa:	e7a3      	b.n	80023f4 <HAL_I2C_Init+0xa8>
 80024ac:	1e43      	subs	r3, r0, #1
 80024ae:	eb05 0c85 	add.w	ip, r5, r5, lsl #2
 80024b2:	eb0c 0c8c 	add.w	ip, ip, ip, lsl #2
 80024b6:	fbb3 f3fc 	udiv	r3, r3, ip
 80024ba:	3301      	adds	r3, #1
 80024bc:	f3c3 030b 	ubfx	r3, r3, #0, #12
 80024c0:	fab3 f383 	clz	r3, r3
 80024c4:	095b      	lsrs	r3, r3, #5
 80024c6:	e7e4      	b.n	8002492 <HAL_I2C_Init+0x146>
 80024c8:	1e43      	subs	r3, r0, #1
 80024ca:	eb05 0585 	add.w	r5, r5, r5, lsl #2
 80024ce:	eb05 0585 	add.w	r5, r5, r5, lsl #2
 80024d2:	fbb3 f3f5 	udiv	r3, r3, r5
 80024d6:	3301      	adds	r3, #1
 80024d8:	f3c3 030b 	ubfx	r3, r3, #0, #12
 80024dc:	f443 4340 	orr.w	r3, r3, #49152	@ 0xc000
 80024e0:	e788      	b.n	80023f4 <HAL_I2C_Init+0xa8>
 80024e2:	2304      	movs	r3, #4
 80024e4:	e786      	b.n	80023f4 <HAL_I2C_Init+0xa8>
 80024e6:	2301      	movs	r3, #1
 80024e8:	e784      	b.n	80023f4 <HAL_I2C_Init+0xa8>
    return HAL_ERROR;
 80024ea:	2001      	movs	r0, #1
}
 80024ec:	4770      	bx	lr
    return HAL_ERROR;
 80024ee:	2001      	movs	r0, #1
 80024f0:	e7ac      	b.n	800244c <HAL_I2C_Init+0x100>
 80024f2:	bf00      	nop
 80024f4:	000186a0 	.word	0x000186a0
 80024f8:	001e847f 	.word	0x001e847f
 80024fc:	431bde83 	.word	0x431bde83
 8002500:	003d08ff 	.word	0x003d08ff
 8002504:	10624dd3 	.word	0x10624dd3

08002508 <HAL_I2CEx_ConfigAnalogFilter>:
{
  /* Check the parameters */
  assert_param(IS_I2C_ALL_INSTANCE(hi2c->Instance));
  assert_param(IS_I2C_ANALOG_FILTER(AnalogFilter));

  if (hi2c->State == HAL_I2C_STATE_READY)
 8002508:	f890 303d 	ldrb.w	r3, [r0, #61]	@ 0x3d
 800250c:	b2db      	uxtb	r3, r3
 800250e:	2b20      	cmp	r3, #32
 8002510:	d001      	beq.n	8002516 <HAL_I2CEx_ConfigAnalogFilter+0xe>

    return HAL_OK;
  }
  else
  {
    return HAL_BUSY;
 8002512:	2002      	movs	r0, #2
  }
}
 8002514:	4770      	bx	lr
    hi2c->State = HAL_I2C_STATE_BUSY;
 8002516:	2324      	movs	r3, #36	@ 0x24
 8002518:	f880 303d 	strb.w	r3, [r0, #61]	@ 0x3d
    __HAL_I2C_DISABLE(hi2c);
 800251c:	6802      	ldr	r2, [r0, #0]
 800251e:	6813      	ldr	r3, [r2, #0]
 8002520:	f023 0301 	bic.w	r3, r3, #1
 8002524:	6013      	str	r3, [r2, #0]
    hi2c->Instance->FLTR &= ~(I2C_FLTR_ANOFF);
 8002526:	6802      	ldr	r2, [r0, #0]
 8002528:	6a53      	ldr	r3, [r2, #36]	@ 0x24
 800252a:	f023 0310 	bic.w	r3, r3, #16
 800252e:	6253      	str	r3, [r2, #36]	@ 0x24
    hi2c->Instance->FLTR |= AnalogFilter;
 8002530:	6802      	ldr	r2, [r0, #0]
 8002532:	6a53      	ldr	r3, [r2, #36]	@ 0x24
 8002534:	430b      	orrs	r3, r1
 8002536:	6253      	str	r3, [r2, #36]	@ 0x24
    __HAL_I2C_ENABLE(hi2c);
 8002538:	6802      	ldr	r2, [r0, #0]
 800253a:	6813      	ldr	r3, [r2, #0]
 800253c:	f043 0301 	orr.w	r3, r3, #1
 8002540:	6013      	str	r3, [r2, #0]
    hi2c->State = HAL_I2C_STATE_READY;
 8002542:	2320      	movs	r3, #32
 8002544:	f880 303d 	strb.w	r3, [r0, #61]	@ 0x3d
    return HAL_OK;
 8002548:	2000      	movs	r0, #0
 800254a:	4770      	bx	lr

0800254c <HAL_I2CEx_ConfigDigitalFilter>:

  /* Check the parameters */
  assert_param(IS_I2C_ALL_INSTANCE(hi2c->Instance));
  assert_param(IS_I2C_DIGITAL_FILTER(DigitalFilter));

  if (hi2c->State == HAL_I2C_STATE_READY)
 800254c:	f890 303d 	ldrb.w	r3, [r0, #61]	@ 0x3d
 8002550:	b2db      	uxtb	r3, r3
 8002552:	2b20      	cmp	r3, #32
 8002554:	d001      	beq.n	800255a <HAL_I2CEx_ConfigDigitalFilter+0xe>

    return HAL_OK;
  }
  else
  {
    return HAL_BUSY;
 8002556:	2002      	movs	r0, #2
  }
}
 8002558:	4770      	bx	lr
    hi2c->State = HAL_I2C_STATE_BUSY;
 800255a:	2324      	movs	r3, #36	@ 0x24
 800255c:	f880 303d 	strb.w	r3, [r0, #61]	@ 0x3d
    __HAL_I2C_DISABLE(hi2c);
 8002560:	6802      	ldr	r2, [r0, #0]
 8002562:	6813      	ldr	r3, [r2, #0]
 8002564:	f023 0301 	bic.w	r3, r3, #1
 8002568:	6013      	str	r3, [r2, #0]
    tmpreg = hi2c->Instance->FLTR;
 800256a:	6802      	ldr	r2, [r0, #0]
 800256c:	6a53      	ldr	r3, [r2, #36]	@ 0x24
 800256e:	b29b      	uxth	r3, r3
    tmpreg &= ~(I2C_FLTR_DNF);
 8002570:	f023 030f 	bic.w	r3, r3, #15
    tmpreg |= DigitalFilter;
 8002574:	4319      	orrs	r1, r3
 8002576:	b289      	uxth	r1, r1
    hi2c->Instance->FLTR = tmpreg;
 8002578:	6251      	str	r1, [r2, #36]	@ 0x24
    __HAL_I2C_ENABLE(hi2c);
 800257a:	6802      	ldr	r2, [r0, #0]
 800257c:	6813      	ldr	r3, [r2, #0]
 800257e:	f043 0301 	orr.w	r3, r3, #1
 8002582:	6013      	str	r3, [r2, #0]
    hi2c->State = HAL_I2C_STATE_READY;
 8002584:	2320      	movs	r3, #32
 8002586:	f880 303d 	strb.w	r3, [r0, #61]	@ 0x3d
    return HAL_OK;
 800258a:	2000      	movs	r0, #0
 800258c:	4770      	bx	lr

0800258e <LTDC_SetConfig>:
  * @param  LayerIdx  LTDC Layer index.
  *                   This parameter can be one of the following values: LTDC_LAYER_1 (0) or LTDC_LAYER_2 (1)
  * @retval None
  */
static void LTDC_SetConfig(LTDC_HandleTypeDef *hltdc, LTDC_LayerCfgTypeDef *pLayerCfg, uint32_t LayerIdx)
{
 800258e:	b570      	push	{r4, r5, r6, lr}
  uint32_t tmp;
  uint32_t tmp1;
  uint32_t tmp2;

  /* Configure the horizontal start and stop position */
  tmp = ((pLayerCfg->WindowX1 + ((hltdc->Instance->BPCR & LTDC_BPCR_AHBP) >> 16U)) << 16U);
 8002590:	684d      	ldr	r5, [r1, #4]
 8002592:	6803      	ldr	r3, [r0, #0]
 8002594:	68dc      	ldr	r4, [r3, #12]
 8002596:	f3c4 440b 	ubfx	r4, r4, #16, #12
 800259a:	4425      	add	r5, r4
  LTDC_LAYER(hltdc, LayerIdx)->WHPCR &= ~(LTDC_LxWHPCR_WHSTPOS | LTDC_LxWHPCR_WHSPPOS);
 800259c:	ea4f 1cc2 	mov.w	ip, r2, lsl #7
 80025a0:	eb03 13c2 	add.w	r3, r3, r2, lsl #7
 80025a4:	f8d3 4088 	ldr.w	r4, [r3, #136]	@ 0x88
 80025a8:	f404 4470 	and.w	r4, r4, #61440	@ 0xf000
 80025ac:	f8c3 4088 	str.w	r4, [r3, #136]	@ 0x88
  LTDC_LAYER(hltdc, LayerIdx)->WHPCR = ((pLayerCfg->WindowX0 + \
 80025b0:	680b      	ldr	r3, [r1, #0]
                                         ((hltdc->Instance->BPCR & LTDC_BPCR_AHBP) >> 16U) + 1U) | tmp);
 80025b2:	6804      	ldr	r4, [r0, #0]
 80025b4:	68e6      	ldr	r6, [r4, #12]
 80025b6:	f3c6 460b 	ubfx	r6, r6, #16, #12
  LTDC_LAYER(hltdc, LayerIdx)->WHPCR = ((pLayerCfg->WindowX0 + \
 80025ba:	4433      	add	r3, r6
                                         ((hltdc->Instance->BPCR & LTDC_BPCR_AHBP) >> 16U) + 1U) | tmp);
 80025bc:	3301      	adds	r3, #1
  LTDC_LAYER(hltdc, LayerIdx)->WHPCR = ((pLayerCfg->WindowX0 + \
 80025be:	eb04 14c2 	add.w	r4, r4, r2, lsl #7
                                         ((hltdc->Instance->BPCR & LTDC_BPCR_AHBP) >> 16U) + 1U) | tmp);
 80025c2:	ea43 4305 	orr.w	r3, r3, r5, lsl #16
  LTDC_LAYER(hltdc, LayerIdx)->WHPCR = ((pLayerCfg->WindowX0 + \
 80025c6:	f8c4 3088 	str.w	r3, [r4, #136]	@ 0x88

  /* Configure the vertical start and stop position */
  tmp = ((pLayerCfg->WindowY1 + (hltdc->Instance->BPCR & LTDC_BPCR_AVBP)) << 16U);
 80025ca:	68cd      	ldr	r5, [r1, #12]
 80025cc:	6803      	ldr	r3, [r0, #0]
 80025ce:	68dc      	ldr	r4, [r3, #12]
 80025d0:	f3c4 040a 	ubfx	r4, r4, #0, #11
 80025d4:	4425      	add	r5, r4
  LTDC_LAYER(hltdc, LayerIdx)->WVPCR &= ~(LTDC_LxWVPCR_WVSTPOS | LTDC_LxWVPCR_WVSPPOS);
 80025d6:	eb03 13c2 	add.w	r3, r3, r2, lsl #7
 80025da:	f8d3 408c 	ldr.w	r4, [r3, #140]	@ 0x8c
 80025de:	f404 4470 	and.w	r4, r4, #61440	@ 0xf000
 80025e2:	f8c3 408c 	str.w	r4, [r3, #140]	@ 0x8c
  LTDC_LAYER(hltdc, LayerIdx)->WVPCR  = ((pLayerCfg->WindowY0 + (hltdc->Instance->BPCR & LTDC_BPCR_AVBP) + 1U) | tmp);
 80025e6:	688b      	ldr	r3, [r1, #8]
 80025e8:	6804      	ldr	r4, [r0, #0]
 80025ea:	68e6      	ldr	r6, [r4, #12]
 80025ec:	f3c6 060a 	ubfx	r6, r6, #0, #11
 80025f0:	4433      	add	r3, r6
 80025f2:	3301      	adds	r3, #1
 80025f4:	eb04 14c2 	add.w	r4, r4, r2, lsl #7
 80025f8:	ea43 4305 	orr.w	r3, r3, r5, lsl #16
 80025fc:	f8c4 308c 	str.w	r3, [r4, #140]	@ 0x8c

  /* Specifies the pixel format */
  LTDC_LAYER(hltdc, LayerIdx)->PFCR &= ~(LTDC_LxPFCR_PF);
 8002600:	6803      	ldr	r3, [r0, #0]
 8002602:	eb03 13c2 	add.w	r3, r3, r2, lsl #7
 8002606:	f8d3 4094 	ldr.w	r4, [r3, #148]	@ 0x94
 800260a:	f024 0407 	bic.w	r4, r4, #7
 800260e:	f8c3 4094 	str.w	r4, [r3, #148]	@ 0x94
  LTDC_LAYER(hltdc, LayerIdx)->PFCR = (pLayerCfg->PixelFormat);
 8002612:	6803      	ldr	r3, [r0, #0]
 8002614:	eb03 13c2 	add.w	r3, r3, r2, lsl #7
 8002618:	690c      	ldr	r4, [r1, #16]
 800261a:	f8c3 4094 	str.w	r4, [r3, #148]	@ 0x94

  /* Configure the default color values */
  tmp = ((uint32_t)(pLayerCfg->Backcolor.Green) << 8U);
 800261e:	f891 e031 	ldrb.w	lr, [r1, #49]	@ 0x31
  tmp1 = ((uint32_t)(pLayerCfg->Backcolor.Red) << 16U);
 8002622:	f891 5032 	ldrb.w	r5, [r1, #50]	@ 0x32
  tmp2 = (pLayerCfg->Alpha0 << 24U);
 8002626:	698e      	ldr	r6, [r1, #24]
  LTDC_LAYER(hltdc, LayerIdx)->DCCR &= ~(LTDC_LxDCCR_DCBLUE | LTDC_LxDCCR_DCGREEN | LTDC_LxDCCR_DCRED |
 8002628:	6803      	ldr	r3, [r0, #0]
 800262a:	eb03 13c2 	add.w	r3, r3, r2, lsl #7
 800262e:	f8d3 409c 	ldr.w	r4, [r3, #156]	@ 0x9c
 8002632:	2400      	movs	r4, #0
 8002634:	f8c3 409c 	str.w	r4, [r3, #156]	@ 0x9c
                                         LTDC_LxDCCR_DCALPHA);
  LTDC_LAYER(hltdc, LayerIdx)->DCCR = (pLayerCfg->Backcolor.Blue | tmp | tmp1 | tmp2);
 8002638:	f891 3030 	ldrb.w	r3, [r1, #48]	@ 0x30
 800263c:	ea43 230e 	orr.w	r3, r3, lr, lsl #8
 8002640:	ea43 4305 	orr.w	r3, r3, r5, lsl #16
 8002644:	6805      	ldr	r5, [r0, #0]
 8002646:	eb05 15c2 	add.w	r5, r5, r2, lsl #7
 800264a:	ea43 6306 	orr.w	r3, r3, r6, lsl #24
 800264e:	f8c5 309c 	str.w	r3, [r5, #156]	@ 0x9c

  /* Specifies the constant alpha value */
  LTDC_LAYER(hltdc, LayerIdx)->CACR &= ~(LTDC_LxCACR_CONSTA);
 8002652:	6803      	ldr	r3, [r0, #0]
 8002654:	eb03 13c2 	add.w	r3, r3, r2, lsl #7
 8002658:	f8d3 5098 	ldr.w	r5, [r3, #152]	@ 0x98
 800265c:	f025 05ff 	bic.w	r5, r5, #255	@ 0xff
 8002660:	f8c3 5098 	str.w	r5, [r3, #152]	@ 0x98
  LTDC_LAYER(hltdc, LayerIdx)->CACR = (pLayerCfg->Alpha);
 8002664:	6803      	ldr	r3, [r0, #0]
 8002666:	eb03 13c2 	add.w	r3, r3, r2, lsl #7
 800266a:	694d      	ldr	r5, [r1, #20]
 800266c:	f8c3 5098 	str.w	r5, [r3, #152]	@ 0x98

  /* Specifies the blending factors */
  LTDC_LAYER(hltdc, LayerIdx)->BFCR &= ~(LTDC_LxBFCR_BF2 | LTDC_LxBFCR_BF1);
 8002670:	6803      	ldr	r3, [r0, #0]
 8002672:	eb03 13c2 	add.w	r3, r3, r2, lsl #7
 8002676:	f8d3 50a0 	ldr.w	r5, [r3, #160]	@ 0xa0
 800267a:	f425 65e0 	bic.w	r5, r5, #1792	@ 0x700
 800267e:	f025 0507 	bic.w	r5, r5, #7
 8002682:	f8c3 50a0 	str.w	r5, [r3, #160]	@ 0xa0
  LTDC_LAYER(hltdc, LayerIdx)->BFCR = (pLayerCfg->BlendingFactor1 | pLayerCfg->BlendingFactor2);
 8002686:	6a0d      	ldr	r5, [r1, #32]
 8002688:	6803      	ldr	r3, [r0, #0]
 800268a:	eb03 13c2 	add.w	r3, r3, r2, lsl #7
 800268e:	69ce      	ldr	r6, [r1, #28]
 8002690:	4335      	orrs	r5, r6
 8002692:	f8c3 50a0 	str.w	r5, [r3, #160]	@ 0xa0

  /* Configure the color frame buffer start address */
  LTDC_LAYER(hltdc, LayerIdx)->CFBAR &= ~(LTDC_LxCFBAR_CFBADD);
 8002696:	6803      	ldr	r3, [r0, #0]
 8002698:	eb03 13c2 	add.w	r3, r3, r2, lsl #7
 800269c:	f8d3 50ac 	ldr.w	r5, [r3, #172]	@ 0xac
 80026a0:	f8c3 40ac 	str.w	r4, [r3, #172]	@ 0xac
  LTDC_LAYER(hltdc, LayerIdx)->CFBAR = (pLayerCfg->FBStartAdress);
 80026a4:	6803      	ldr	r3, [r0, #0]
 80026a6:	eb03 13c2 	add.w	r3, r3, r2, lsl #7
 80026aa:	6a4a      	ldr	r2, [r1, #36]	@ 0x24
 80026ac:	f8c3 20ac 	str.w	r2, [r3, #172]	@ 0xac

  if (pLayerCfg->PixelFormat == LTDC_PIXEL_FORMAT_ARGB8888)
 80026b0:	690a      	ldr	r2, [r1, #16]
 80026b2:	b182      	cbz	r2, 80026d6 <LTDC_SetConfig+0x148>
  {
    tmp = 4U;
  }
  else if (pLayerCfg->PixelFormat == LTDC_PIXEL_FORMAT_RGB888)
 80026b4:	1e53      	subs	r3, r2, #1
 80026b6:	2b06      	cmp	r3, #6
 80026b8:	d805      	bhi.n	80026c6 <LTDC_SetConfig+0x138>
 80026ba:	e8df f003 	tbb	[pc, r3]
 80026be:	0d3c      	.short	0x0d3c
 80026c0:	04040608 	.word	0x04040608
 80026c4:	0a          	.byte	0x0a
 80026c5:	00          	.byte	0x00
  if (pLayerCfg->PixelFormat == LTDC_PIXEL_FORMAT_ARGB8888)
 80026c6:	2201      	movs	r2, #1
 80026c8:	e006      	b.n	80026d8 <LTDC_SetConfig+0x14a>
 80026ca:	2202      	movs	r2, #2
 80026cc:	e004      	b.n	80026d8 <LTDC_SetConfig+0x14a>
 80026ce:	2202      	movs	r2, #2
 80026d0:	e002      	b.n	80026d8 <LTDC_SetConfig+0x14a>
 80026d2:	2202      	movs	r2, #2
 80026d4:	e000      	b.n	80026d8 <LTDC_SetConfig+0x14a>
    tmp = 4U;
 80026d6:	2204      	movs	r2, #4
  {
    tmp = 1U;
  }

  /* Configure the color frame buffer pitch in byte */
  LTDC_LAYER(hltdc, LayerIdx)->CFBLR  &= ~(LTDC_LxCFBLR_CFBLL | LTDC_LxCFBLR_CFBP);
 80026d8:	6803      	ldr	r3, [r0, #0]
 80026da:	4463      	add	r3, ip
 80026dc:	f8d3 40b0 	ldr.w	r4, [r3, #176]	@ 0xb0
 80026e0:	f004 24e0 	and.w	r4, r4, #3758153728	@ 0xe000e000
 80026e4:	f8c3 40b0 	str.w	r4, [r3, #176]	@ 0xb0
  LTDC_LAYER(hltdc, LayerIdx)->CFBLR  = (((pLayerCfg->ImageWidth * tmp) << 16U) | \
 80026e8:	6a8b      	ldr	r3, [r1, #40]	@ 0x28
 80026ea:	fb02 f403 	mul.w	r4, r2, r3
                                         (((pLayerCfg->WindowX1 - pLayerCfg->WindowX0) * tmp)  + 3U));
 80026ee:	684b      	ldr	r3, [r1, #4]
 80026f0:	680d      	ldr	r5, [r1, #0]
 80026f2:	1b5b      	subs	r3, r3, r5
 80026f4:	fb02 f303 	mul.w	r3, r2, r3
 80026f8:	3303      	adds	r3, #3
  LTDC_LAYER(hltdc, LayerIdx)->CFBLR  = (((pLayerCfg->ImageWidth * tmp) << 16U) | \
 80026fa:	6802      	ldr	r2, [r0, #0]
 80026fc:	4462      	add	r2, ip
 80026fe:	ea43 4304 	orr.w	r3, r3, r4, lsl #16
 8002702:	f8c2 30b0 	str.w	r3, [r2, #176]	@ 0xb0
  /* Configure the frame buffer line number */
  LTDC_LAYER(hltdc, LayerIdx)->CFBLNR  &= ~(LTDC_LxCFBLNR_CFBLNBR);
 8002706:	6803      	ldr	r3, [r0, #0]
 8002708:	4463      	add	r3, ip
 800270a:	f8d3 20b4 	ldr.w	r2, [r3, #180]	@ 0xb4
 800270e:	f422 62ff 	bic.w	r2, r2, #2040	@ 0x7f8
 8002712:	f022 0207 	bic.w	r2, r2, #7
 8002716:	f8c3 20b4 	str.w	r2, [r3, #180]	@ 0xb4
  LTDC_LAYER(hltdc, LayerIdx)->CFBLNR  = (pLayerCfg->ImageHeight);
 800271a:	6803      	ldr	r3, [r0, #0]
 800271c:	4463      	add	r3, ip
 800271e:	6aca      	ldr	r2, [r1, #44]	@ 0x2c
 8002720:	f8c3 20b4 	str.w	r2, [r3, #180]	@ 0xb4

  /* Enable LTDC_Layer by setting LEN bit */
  LTDC_LAYER(hltdc, LayerIdx)->CR |= (uint32_t)LTDC_LxCR_LEN;
 8002724:	6803      	ldr	r3, [r0, #0]
 8002726:	4463      	add	r3, ip
 8002728:	f8d3 2084 	ldr.w	r2, [r3, #132]	@ 0x84
 800272c:	f042 0201 	orr.w	r2, r2, #1
 8002730:	f8c3 2084 	str.w	r2, [r3, #132]	@ 0x84
}
 8002734:	bd70      	pop	{r4, r5, r6, pc}
  if (pLayerCfg->PixelFormat == LTDC_PIXEL_FORMAT_ARGB8888)
 8002736:	2203      	movs	r2, #3
 8002738:	e7ce      	b.n	80026d8 <LTDC_SetConfig+0x14a>
	...

0800273c <HAL_LTDC_Init>:
  if (hltdc == NULL)
 800273c:	2800      	cmp	r0, #0
 800273e:	d072      	beq.n	8002826 <HAL_LTDC_Init+0xea>
{
 8002740:	b538      	push	{r3, r4, r5, lr}
 8002742:	4604      	mov	r4, r0
  if (hltdc->State == HAL_LTDC_STATE_RESET)
 8002744:	f890 30a1 	ldrb.w	r3, [r0, #161]	@ 0xa1
 8002748:	2b00      	cmp	r3, #0
 800274a:	d067      	beq.n	800281c <HAL_LTDC_Init+0xe0>
  hltdc->State = HAL_LTDC_STATE_BUSY;
 800274c:	2302      	movs	r3, #2
 800274e:	f884 30a1 	strb.w	r3, [r4, #161]	@ 0xa1
  hltdc->Instance->GCR &= ~(LTDC_GCR_HSPOL | LTDC_GCR_VSPOL | LTDC_GCR_DEPOL | LTDC_GCR_PCPOL);
 8002752:	6822      	ldr	r2, [r4, #0]
 8002754:	6993      	ldr	r3, [r2, #24]
 8002756:	f023 4370 	bic.w	r3, r3, #4026531840	@ 0xf0000000
 800275a:	6193      	str	r3, [r2, #24]
  hltdc->Instance->GCR |= (uint32_t)(hltdc->Init.HSPolarity | hltdc->Init.VSPolarity | \
 800275c:	6821      	ldr	r1, [r4, #0]
 800275e:	698a      	ldr	r2, [r1, #24]
 8002760:	6863      	ldr	r3, [r4, #4]
 8002762:	68a0      	ldr	r0, [r4, #8]
 8002764:	4303      	orrs	r3, r0
                                     hltdc->Init.DEPolarity | hltdc->Init.PCPolarity);
 8002766:	68e0      	ldr	r0, [r4, #12]
  hltdc->Instance->GCR |= (uint32_t)(hltdc->Init.HSPolarity | hltdc->Init.VSPolarity | \
 8002768:	4303      	orrs	r3, r0
                                     hltdc->Init.DEPolarity | hltdc->Init.PCPolarity);
 800276a:	6920      	ldr	r0, [r4, #16]
 800276c:	4303      	orrs	r3, r0
  hltdc->Instance->GCR |= (uint32_t)(hltdc->Init.HSPolarity | hltdc->Init.VSPolarity | \
 800276e:	4313      	orrs	r3, r2
 8002770:	618b      	str	r3, [r1, #24]
  hltdc->Instance->SSCR &= ~(LTDC_SSCR_VSH | LTDC_SSCR_HSW);
 8002772:	6821      	ldr	r1, [r4, #0]
 8002774:	688a      	ldr	r2, [r1, #8]
 8002776:	4b2d      	ldr	r3, [pc, #180]	@ (800282c <HAL_LTDC_Init+0xf0>)
 8002778:	401a      	ands	r2, r3
 800277a:	608a      	str	r2, [r1, #8]
  hltdc->Instance->SSCR |= (tmp | hltdc->Init.VerticalSync);
 800277c:	6820      	ldr	r0, [r4, #0]
 800277e:	6882      	ldr	r2, [r0, #8]
 8002780:	69a1      	ldr	r1, [r4, #24]
 8002782:	6965      	ldr	r5, [r4, #20]
 8002784:	ea41 4105 	orr.w	r1, r1, r5, lsl #16
 8002788:	430a      	orrs	r2, r1
 800278a:	6082      	str	r2, [r0, #8]
  hltdc->Instance->BPCR &= ~(LTDC_BPCR_AVBP | LTDC_BPCR_AHBP);
 800278c:	6821      	ldr	r1, [r4, #0]
 800278e:	68ca      	ldr	r2, [r1, #12]
 8002790:	401a      	ands	r2, r3
 8002792:	60ca      	str	r2, [r1, #12]
  hltdc->Instance->BPCR |= (tmp | hltdc->Init.AccumulatedVBP);
 8002794:	6820      	ldr	r0, [r4, #0]
 8002796:	68c2      	ldr	r2, [r0, #12]
 8002798:	6a21      	ldr	r1, [r4, #32]
 800279a:	69e5      	ldr	r5, [r4, #28]
 800279c:	ea41 4105 	orr.w	r1, r1, r5, lsl #16
 80027a0:	430a      	orrs	r2, r1
 80027a2:	60c2      	str	r2, [r0, #12]
  hltdc->Instance->AWCR &= ~(LTDC_AWCR_AAH | LTDC_AWCR_AAW);
 80027a4:	6821      	ldr	r1, [r4, #0]
 80027a6:	690a      	ldr	r2, [r1, #16]
 80027a8:	401a      	ands	r2, r3
 80027aa:	610a      	str	r2, [r1, #16]
  hltdc->Instance->AWCR |= (tmp | hltdc->Init.AccumulatedActiveH);
 80027ac:	6820      	ldr	r0, [r4, #0]
 80027ae:	6902      	ldr	r2, [r0, #16]
 80027b0:	6aa1      	ldr	r1, [r4, #40]	@ 0x28
 80027b2:	6a65      	ldr	r5, [r4, #36]	@ 0x24
 80027b4:	ea41 4105 	orr.w	r1, r1, r5, lsl #16
 80027b8:	430a      	orrs	r2, r1
 80027ba:	6102      	str	r2, [r0, #16]
  hltdc->Instance->TWCR &= ~(LTDC_TWCR_TOTALH | LTDC_TWCR_TOTALW);
 80027bc:	6821      	ldr	r1, [r4, #0]
 80027be:	694a      	ldr	r2, [r1, #20]
 80027c0:	4013      	ands	r3, r2
 80027c2:	614b      	str	r3, [r1, #20]
  tmp = (hltdc->Init.TotalWidth << 16U);
 80027c4:	6ae0      	ldr	r0, [r4, #44]	@ 0x2c
  hltdc->Instance->TWCR |= (tmp | hltdc->Init.TotalHeigh);
 80027c6:	6821      	ldr	r1, [r4, #0]
 80027c8:	694b      	ldr	r3, [r1, #20]
 80027ca:	6b22      	ldr	r2, [r4, #48]	@ 0x30
 80027cc:	ea42 4200 	orr.w	r2, r2, r0, lsl #16
 80027d0:	4313      	orrs	r3, r2
 80027d2:	614b      	str	r3, [r1, #20]
  tmp = ((uint32_t)(hltdc->Init.Backcolor.Green) << 8U);
 80027d4:	f894 0035 	ldrb.w	r0, [r4, #53]	@ 0x35
  tmp1 = ((uint32_t)(hltdc->Init.Backcolor.Red) << 16U);
 80027d8:	f894 3036 	ldrb.w	r3, [r4, #54]	@ 0x36
 80027dc:	041b      	lsls	r3, r3, #16
  hltdc->Instance->BCCR &= ~(LTDC_BCCR_BCBLUE | LTDC_BCCR_BCGREEN | LTDC_BCCR_BCRED);
 80027de:	6821      	ldr	r1, [r4, #0]
 80027e0:	6aca      	ldr	r2, [r1, #44]	@ 0x2c
 80027e2:	f002 427f 	and.w	r2, r2, #4278190080	@ 0xff000000
 80027e6:	62ca      	str	r2, [r1, #44]	@ 0x2c
  hltdc->Instance->BCCR |= (tmp1 | tmp | hltdc->Init.Backcolor.Blue);
 80027e8:	6821      	ldr	r1, [r4, #0]
 80027ea:	6aca      	ldr	r2, [r1, #44]	@ 0x2c
 80027ec:	ea43 2300 	orr.w	r3, r3, r0, lsl #8
 80027f0:	f894 0034 	ldrb.w	r0, [r4, #52]	@ 0x34
 80027f4:	4303      	orrs	r3, r0
 80027f6:	4313      	orrs	r3, r2
 80027f8:	62cb      	str	r3, [r1, #44]	@ 0x2c
  __HAL_LTDC_ENABLE_IT(hltdc, LTDC_IT_TE | LTDC_IT_FU);
 80027fa:	6822      	ldr	r2, [r4, #0]
 80027fc:	6b53      	ldr	r3, [r2, #52]	@ 0x34
 80027fe:	f043 0306 	orr.w	r3, r3, #6
 8002802:	6353      	str	r3, [r2, #52]	@ 0x34
  __HAL_LTDC_ENABLE(hltdc);
 8002804:	6822      	ldr	r2, [r4, #0]
 8002806:	6993      	ldr	r3, [r2, #24]
 8002808:	f043 0301 	orr.w	r3, r3, #1
 800280c:	6193      	str	r3, [r2, #24]
  hltdc->ErrorCode = HAL_LTDC_ERROR_NONE;
 800280e:	2000      	movs	r0, #0
 8002810:	f8c4 00a4 	str.w	r0, [r4, #164]	@ 0xa4
  hltdc->State = HAL_LTDC_STATE_READY;
 8002814:	2301      	movs	r3, #1
 8002816:	f884 30a1 	strb.w	r3, [r4, #161]	@ 0xa1
}
 800281a:	bd38      	pop	{r3, r4, r5, pc}
    hltdc->Lock = HAL_UNLOCKED;
 800281c:	f880 30a0 	strb.w	r3, [r0, #160]	@ 0xa0
    HAL_LTDC_MspInit(hltdc);
 8002820:	f7fe fd96 	bl	8001350 <HAL_LTDC_MspInit>
 8002824:	e792      	b.n	800274c <HAL_LTDC_Init+0x10>
    return HAL_ERROR;
 8002826:	2001      	movs	r0, #1
}
 8002828:	4770      	bx	lr
 800282a:	bf00      	nop
 800282c:	f000f800 	.word	0xf000f800

08002830 <HAL_LTDC_ErrorCallback>:
}
 8002830:	4770      	bx	lr

08002832 <HAL_LTDC_LineEventCallback>:
}
 8002832:	4770      	bx	lr

08002834 <HAL_LTDC_ReloadEventCallback>:
}
 8002834:	4770      	bx	lr

08002836 <HAL_LTDC_IRQHandler>:
{
 8002836:	b570      	push	{r4, r5, r6, lr}
 8002838:	4604      	mov	r4, r0
  uint32_t isrflags  = READ_REG(hltdc->Instance->ISR);
 800283a:	6803      	ldr	r3, [r0, #0]
 800283c:	6b9d      	ldr	r5, [r3, #56]	@ 0x38
  uint32_t itsources = READ_REG(hltdc->Instance->IER);
 800283e:	6b5e      	ldr	r6, [r3, #52]	@ 0x34
  if (((isrflags & LTDC_ISR_TERRIF) != 0U) && ((itsources & LTDC_IER_TERRIE) != 0U))
 8002840:	f015 0f04 	tst.w	r5, #4
 8002844:	d002      	beq.n	800284c <HAL_LTDC_IRQHandler+0x16>
 8002846:	f016 0f04 	tst.w	r6, #4
 800284a:	d112      	bne.n	8002872 <HAL_LTDC_IRQHandler+0x3c>
  if (((isrflags & LTDC_ISR_FUIF) != 0U) && ((itsources & LTDC_IER_FUIE) != 0U))
 800284c:	f015 0f02 	tst.w	r5, #2
 8002850:	d002      	beq.n	8002858 <HAL_LTDC_IRQHandler+0x22>
 8002852:	f016 0f02 	tst.w	r6, #2
 8002856:	d121      	bne.n	800289c <HAL_LTDC_IRQHandler+0x66>
  if (((isrflags & LTDC_ISR_LIF) != 0U) && ((itsources & LTDC_IER_LIE) != 0U))
 8002858:	f015 0f01 	tst.w	r5, #1
 800285c:	d002      	beq.n	8002864 <HAL_LTDC_IRQHandler+0x2e>
 800285e:	f016 0f01 	tst.w	r6, #1
 8002862:	d132      	bne.n	80028ca <HAL_LTDC_IRQHandler+0x94>
  if (((isrflags & LTDC_ISR_RRIF) != 0U) && ((itsources & LTDC_IER_RRIE) != 0U))
 8002864:	f015 0f08 	tst.w	r5, #8
 8002868:	d002      	beq.n	8002870 <HAL_LTDC_IRQHandler+0x3a>
 800286a:	f016 0f08 	tst.w	r6, #8
 800286e:	d13d      	bne.n	80028ec <HAL_LTDC_IRQHandler+0xb6>
}
 8002870:	bd70      	pop	{r4, r5, r6, pc}
    __HAL_LTDC_DISABLE_IT(hltdc, LTDC_IT_TE);
 8002872:	6b5a      	ldr	r2, [r3, #52]	@ 0x34
 8002874:	f022 0204 	bic.w	r2, r2, #4
 8002878:	635a      	str	r2, [r3, #52]	@ 0x34
    __HAL_LTDC_CLEAR_FLAG(hltdc, LTDC_FLAG_TE);
 800287a:	6803      	ldr	r3, [r0, #0]
 800287c:	2204      	movs	r2, #4
 800287e:	63da      	str	r2, [r3, #60]	@ 0x3c
    hltdc->ErrorCode |= HAL_LTDC_ERROR_TE;
 8002880:	f8d0 30a4 	ldr.w	r3, [r0, #164]	@ 0xa4
 8002884:	f043 0301 	orr.w	r3, r3, #1
 8002888:	f8c0 30a4 	str.w	r3, [r0, #164]	@ 0xa4
    hltdc->State = HAL_LTDC_STATE_ERROR;
 800288c:	f880 20a1 	strb.w	r2, [r0, #161]	@ 0xa1
    __HAL_UNLOCK(hltdc);
 8002890:	2300      	movs	r3, #0
 8002892:	f880 30a0 	strb.w	r3, [r0, #160]	@ 0xa0
    HAL_LTDC_ErrorCallback(hltdc);
 8002896:	f7ff ffcb 	bl	8002830 <HAL_LTDC_ErrorCallback>
 800289a:	e7d7      	b.n	800284c <HAL_LTDC_IRQHandler+0x16>
    __HAL_LTDC_DISABLE_IT(hltdc, LTDC_IT_FU);
 800289c:	6822      	ldr	r2, [r4, #0]
 800289e:	6b53      	ldr	r3, [r2, #52]	@ 0x34
 80028a0:	f023 0302 	bic.w	r3, r3, #2
 80028a4:	6353      	str	r3, [r2, #52]	@ 0x34
    __HAL_LTDC_CLEAR_FLAG(hltdc, LTDC_FLAG_FU);
 80028a6:	6823      	ldr	r3, [r4, #0]
 80028a8:	2202      	movs	r2, #2
 80028aa:	63da      	str	r2, [r3, #60]	@ 0x3c
    hltdc->ErrorCode |= HAL_LTDC_ERROR_FU;
 80028ac:	f8d4 30a4 	ldr.w	r3, [r4, #164]	@ 0xa4
 80028b0:	4313      	orrs	r3, r2
 80028b2:	f8c4 30a4 	str.w	r3, [r4, #164]	@ 0xa4
    hltdc->State = HAL_LTDC_STATE_ERROR;
 80028b6:	2304      	movs	r3, #4
 80028b8:	f884 30a1 	strb.w	r3, [r4, #161]	@ 0xa1
    __HAL_UNLOCK(hltdc);
 80028bc:	2300      	movs	r3, #0
 80028be:	f884 30a0 	strb.w	r3, [r4, #160]	@ 0xa0
    HAL_LTDC_ErrorCallback(hltdc);
 80028c2:	4620      	mov	r0, r4
 80028c4:	f7ff ffb4 	bl	8002830 <HAL_LTDC_ErrorCallback>
 80028c8:	e7c6      	b.n	8002858 <HAL_LTDC_IRQHandler+0x22>
    __HAL_LTDC_DISABLE_IT(hltdc, LTDC_IT_LI);
 80028ca:	6822      	ldr	r2, [r4, #0]
 80028cc:	6b53      	ldr	r3, [r2, #52]	@ 0x34
 80028ce:	f023 0301 	bic.w	r3, r3, #1
 80028d2:	6353      	str	r3, [r2, #52]	@ 0x34
    __HAL_LTDC_CLEAR_FLAG(hltdc, LTDC_FLAG_LI);
 80028d4:	6822      	ldr	r2, [r4, #0]
 80028d6:	2301      	movs	r3, #1
 80028d8:	63d3      	str	r3, [r2, #60]	@ 0x3c
    hltdc->State = HAL_LTDC_STATE_READY;
 80028da:	f884 30a1 	strb.w	r3, [r4, #161]	@ 0xa1
    __HAL_UNLOCK(hltdc);
 80028de:	2300      	movs	r3, #0
 80028e0:	f884 30a0 	strb.w	r3, [r4, #160]	@ 0xa0
    HAL_LTDC_LineEventCallback(hltdc);
 80028e4:	4620      	mov	r0, r4
 80028e6:	f7ff ffa4 	bl	8002832 <HAL_LTDC_LineEventCallback>
 80028ea:	e7bb      	b.n	8002864 <HAL_LTDC_IRQHandler+0x2e>
    __HAL_LTDC_DISABLE_IT(hltdc, LTDC_IT_RR);
 80028ec:	6822      	ldr	r2, [r4, #0]
 80028ee:	6b53      	ldr	r3, [r2, #52]	@ 0x34
 80028f0:	f023 0308 	bic.w	r3, r3, #8
 80028f4:	6353      	str	r3, [r2, #52]	@ 0x34
    __HAL_LTDC_CLEAR_FLAG(hltdc, LTDC_FLAG_RR);
 80028f6:	6823      	ldr	r3, [r4, #0]
 80028f8:	2208      	movs	r2, #8
 80028fa:	63da      	str	r2, [r3, #60]	@ 0x3c
    hltdc->State = HAL_LTDC_STATE_READY;
 80028fc:	2301      	movs	r3, #1
 80028fe:	f884 30a1 	strb.w	r3, [r4, #161]	@ 0xa1
    __HAL_UNLOCK(hltdc);
 8002902:	2300      	movs	r3, #0
 8002904:	f884 30a0 	strb.w	r3, [r4, #160]	@ 0xa0
    HAL_LTDC_ReloadEventCallback(hltdc);
 8002908:	4620      	mov	r0, r4
 800290a:	f7ff ff93 	bl	8002834 <HAL_LTDC_ReloadEventCallback>
}
 800290e:	e7af      	b.n	8002870 <HAL_LTDC_IRQHandler+0x3a>

08002910 <HAL_LTDC_ConfigLayer>:
{
 8002910:	b5f8      	push	{r3, r4, r5, r6, r7, lr}
  __HAL_LOCK(hltdc);
 8002912:	f890 30a0 	ldrb.w	r3, [r0, #160]	@ 0xa0
 8002916:	2b01      	cmp	r3, #1
 8002918:	d02c      	beq.n	8002974 <HAL_LTDC_ConfigLayer+0x64>
 800291a:	4604      	mov	r4, r0
 800291c:	460d      	mov	r5, r1
 800291e:	4616      	mov	r6, r2
 8002920:	2701      	movs	r7, #1
 8002922:	f880 70a0 	strb.w	r7, [r0, #160]	@ 0xa0
  hltdc->State = HAL_LTDC_STATE_BUSY;
 8002926:	2302      	movs	r3, #2
 8002928:	f880 30a1 	strb.w	r3, [r0, #161]	@ 0xa1
  hltdc->LayerCfg[LayerIdx] = *pLayerCfg;
 800292c:	f04f 0c34 	mov.w	ip, #52	@ 0x34
 8002930:	fb0c 0c02 	mla	ip, ip, r2, r0
 8002934:	f10c 0c38 	add.w	ip, ip, #56	@ 0x38
 8002938:	468e      	mov	lr, r1
 800293a:	e8be 000f 	ldmia.w	lr!, {r0, r1, r2, r3}
 800293e:	e8ac 000f 	stmia.w	ip!, {r0, r1, r2, r3}
 8002942:	e8be 000f 	ldmia.w	lr!, {r0, r1, r2, r3}
 8002946:	e8ac 000f 	stmia.w	ip!, {r0, r1, r2, r3}
 800294a:	e8be 000f 	ldmia.w	lr!, {r0, r1, r2, r3}
 800294e:	e8ac 000f 	stmia.w	ip!, {r0, r1, r2, r3}
 8002952:	f8de 3000 	ldr.w	r3, [lr]
 8002956:	f8cc 3000 	str.w	r3, [ip]
  LTDC_SetConfig(hltdc, pLayerCfg, LayerIdx);
 800295a:	4632      	mov	r2, r6
 800295c:	4629      	mov	r1, r5
 800295e:	4620      	mov	r0, r4
 8002960:	f7ff fe15 	bl	800258e <LTDC_SetConfig>
  hltdc->Instance->SRCR = LTDC_SRCR_IMR;
 8002964:	6823      	ldr	r3, [r4, #0]
 8002966:	625f      	str	r7, [r3, #36]	@ 0x24
  hltdc->State  = HAL_LTDC_STATE_READY;
 8002968:	f884 70a1 	strb.w	r7, [r4, #161]	@ 0xa1
  __HAL_UNLOCK(hltdc);
 800296c:	2000      	movs	r0, #0
 800296e:	f884 00a0 	strb.w	r0, [r4, #160]	@ 0xa0
}
 8002972:	bdf8      	pop	{r3, r4, r5, r6, r7, pc}
  __HAL_LOCK(hltdc);
 8002974:	2002      	movs	r0, #2
 8002976:	e7fc      	b.n	8002972 <HAL_LTDC_ConfigLayer+0x62>

08002978 <HAL_RCC_GetHCLKFreq>:
  * @retval HCLK frequency
  */
uint32_t HAL_RCC_GetHCLKFreq(void)
{
  return SystemCoreClock;
}
 8002978:	4b01      	ldr	r3, [pc, #4]	@ (8002980 <HAL_RCC_GetHCLKFreq+0x8>)
 800297a:	6818      	ldr	r0, [r3, #0]
 800297c:	4770      	bx	lr
 800297e:	bf00      	nop
 8002980:	20000000 	.word	0x20000000

08002984 <HAL_RCC_GetPCLK1Freq>:
  * @note   Each time PCLK1 changes, this function must be called to update the
  *         right PCLK1 value. Otherwise, any configuration based on this function will be incorrect.
  * @retval PCLK1 frequency
  */
uint32_t HAL_RCC_GetPCLK1Freq(void)
{
 8002984:	b508      	push	{r3, lr}
  /* Get HCLK source and Compute PCLK1 frequency ---------------------------*/
  return (HAL_RCC_GetHCLKFreq() >> APBPrescTable[(RCC->CFGR & RCC_CFGR_PPRE1)>> RCC_CFGR_PPRE1_Pos]);
 8002986:	f7ff fff7 	bl	8002978 <HAL_RCC_GetHCLKFreq>
 800298a:	4b04      	ldr	r3, [pc, #16]	@ (800299c <HAL_RCC_GetPCLK1Freq+0x18>)
 800298c:	689b      	ldr	r3, [r3, #8]
 800298e:	f3c3 2382 	ubfx	r3, r3, #10, #3
 8002992:	4a03      	ldr	r2, [pc, #12]	@ (80029a0 <HAL_RCC_GetPCLK1Freq+0x1c>)
 8002994:	5cd3      	ldrb	r3, [r2, r3]
}
 8002996:	40d8      	lsrs	r0, r3
 8002998:	bd08      	pop	{r3, pc}
 800299a:	bf00      	nop
 800299c:	40023800 	.word	0x40023800
 80029a0:	08004230 	.word	0x08004230

080029a4 <HAL_RCC_GetPCLK2Freq>:
  * @note   Each time PCLK2 changes, this function must be called to update the
  *         right PCLK2 value. Otherwise, any configuration based on this function will be incorrect.
  * @retval PCLK2 frequency
  */
uint32_t HAL_RCC_GetPCLK2Freq(void)
{
 80029a4:	b508      	push	{r3, lr}
  /* Get HCLK source and Compute PCLK2 frequency ---------------------------*/
  return (HAL_RCC_GetHCLKFreq()>> APBPrescTable[(RCC->CFGR & RCC_CFGR_PPRE2)>> RCC_CFGR_PPRE2_Pos]);
 80029a6:	f7ff ffe7 	bl	8002978 <HAL_RCC_GetHCLKFreq>
 80029aa:	4b04      	ldr	r3, [pc, #16]	@ (80029bc <HAL_RCC_GetPCLK2Freq+0x18>)
 80029ac:	689b      	ldr	r3, [r3, #8]
 80029ae:	f3c3 3342 	ubfx	r3, r3, #13, #3
 80029b2:	4a03      	ldr	r2, [pc, #12]	@ (80029c0 <HAL_RCC_GetPCLK2Freq+0x1c>)
 80029b4:	5cd3      	ldrb	r3, [r2, r3]
}
 80029b6:	40d8      	lsrs	r0, r3
 80029b8:	bd08      	pop	{r3, pc}
 80029ba:	bf00      	nop
 80029bc:	40023800 	.word	0x40023800
 80029c0:	08004230 	.word	0x08004230

080029c4 <HAL_RCC_GetClockConfig>:
  * @retval None
  */
void HAL_RCC_GetClockConfig(RCC_ClkInitTypeDef  *RCC_ClkInitStruct, uint32_t *pFLatency)
{
  /* Set all possible values for the Clock type parameter --------------------*/
  RCC_ClkInitStruct->ClockType = RCC_CLOCKTYPE_SYSCLK | RCC_CLOCKTYPE_HCLK | RCC_CLOCKTYPE_PCLK1 | RCC_CLOCKTYPE_PCLK2;
 80029c4:	230f      	movs	r3, #15
 80029c6:	6003      	str	r3, [r0, #0]

  /* Get the SYSCLK configuration --------------------------------------------*/
  RCC_ClkInitStruct->SYSCLKSource = (uint32_t)(RCC->CFGR & RCC_CFGR_SW);
 80029c8:	4b0b      	ldr	r3, [pc, #44]	@ (80029f8 <HAL_RCC_GetClockConfig+0x34>)
 80029ca:	689a      	ldr	r2, [r3, #8]
 80029cc:	f002 0203 	and.w	r2, r2, #3
 80029d0:	6042      	str	r2, [r0, #4]

  /* Get the HCLK configuration ----------------------------------------------*/
  RCC_ClkInitStruct->AHBCLKDivider = (uint32_t)(RCC->CFGR & RCC_CFGR_HPRE);
 80029d2:	689a      	ldr	r2, [r3, #8]
 80029d4:	f002 02f0 	and.w	r2, r2, #240	@ 0xf0
 80029d8:	6082      	str	r2, [r0, #8]

  /* Get the APB1 configuration ----------------------------------------------*/
  RCC_ClkInitStruct->APB1CLKDivider = (uint32_t)(RCC->CFGR & RCC_CFGR_PPRE1);
 80029da:	689a      	ldr	r2, [r3, #8]
 80029dc:	f402 52e0 	and.w	r2, r2, #7168	@ 0x1c00
 80029e0:	60c2      	str	r2, [r0, #12]

  /* Get the APB2 configuration ----------------------------------------------*/
  RCC_ClkInitStruct->APB2CLKDivider = (uint32_t)((RCC->CFGR & RCC_CFGR_PPRE2) >> 3U);
 80029e2:	689b      	ldr	r3, [r3, #8]
 80029e4:	08db      	lsrs	r3, r3, #3
 80029e6:	f403 53e0 	and.w	r3, r3, #7168	@ 0x1c00
 80029ea:	6103      	str	r3, [r0, #16]

  /* Get the Flash Wait State (Latency) configuration ------------------------*/
  *pFLatency = (uint32_t)(FLASH->ACR & FLASH_ACR_LATENCY);
 80029ec:	4b03      	ldr	r3, [pc, #12]	@ (80029fc <HAL_RCC_GetClockConfig+0x38>)
 80029ee:	681b      	ldr	r3, [r3, #0]
 80029f0:	f003 030f 	and.w	r3, r3, #15
 80029f4:	600b      	str	r3, [r1, #0]
}
 80029f6:	4770      	bx	lr
 80029f8:	40023800 	.word	0x40023800
 80029fc:	40023c00 	.word	0x40023c00

08002a00 <HAL_SDRAM_Init>:
  * @retval HAL status
  */
HAL_StatusTypeDef HAL_SDRAM_Init(SDRAM_HandleTypeDef *hsdram, FMC_SDRAM_TimingTypeDef *Timing)
{
  /* Check the SDRAM handle parameter */
  if (hsdram == NULL)
 8002a00:	b1e0      	cbz	r0, 8002a3c <HAL_SDRAM_Init+0x3c>
{
 8002a02:	b538      	push	{r3, r4, r5, lr}
 8002a04:	460d      	mov	r5, r1
 8002a06:	4604      	mov	r4, r0
  {
    return HAL_ERROR;
  }

  if (hsdram->State == HAL_SDRAM_STATE_RESET)
 8002a08:	f890 302c 	ldrb.w	r3, [r0, #44]	@ 0x2c
 8002a0c:	b18b      	cbz	r3, 8002a32 <HAL_SDRAM_Init+0x32>
    HAL_SDRAM_MspInit(hsdram);
#endif /* USE_HAL_SDRAM_REGISTER_CALLBACKS */
  }

  /* Initialize the SDRAM controller state */
  hsdram->State = HAL_SDRAM_STATE_BUSY;
 8002a0e:	2302      	movs	r3, #2
 8002a10:	f884 302c 	strb.w	r3, [r4, #44]	@ 0x2c

  /* Initialize SDRAM control Interface */
  (void)FMC_SDRAM_Init(hsdram->Instance, &(hsdram->Init));
 8002a14:	4621      	mov	r1, r4
 8002a16:	f851 0b04 	ldr.w	r0, [r1], #4
 8002a1a:	f000 fd94 	bl	8003546 <FMC_SDRAM_Init>

  /* Initialize SDRAM timing Interface */
  (void)FMC_SDRAM_Timing_Init(hsdram->Instance, Timing, hsdram->Init.SDBank);
 8002a1e:	6862      	ldr	r2, [r4, #4]
 8002a20:	4629      	mov	r1, r5
 8002a22:	6820      	ldr	r0, [r4, #0]
 8002a24:	f000 fdcb 	bl	80035be <FMC_SDRAM_Timing_Init>
  /* Update the SDRAM controller state */
  hsdram->State = HAL_SDRAM_STATE_READY;
 8002a28:	2301      	movs	r3, #1
 8002a2a:	f884 302c 	strb.w	r3, [r4, #44]	@ 0x2c

  return HAL_OK;
 8002a2e:	2000      	movs	r0, #0
}
 8002a30:	bd38      	pop	{r3, r4, r5, pc}
    hsdram->Lock = HAL_UNLOCKED;
 8002a32:	f880 302d 	strb.w	r3, [r0, #45]	@ 0x2d
    HAL_SDRAM_MspInit(hsdram);
 8002a36:	f7fe fe1b 	bl	8001670 <HAL_SDRAM_MspInit>
 8002a3a:	e7e8      	b.n	8002a0e <HAL_SDRAM_Init+0xe>
    return HAL_ERROR;
 8002a3c:	2001      	movs	r0, #1
}
 8002a3e:	4770      	bx	lr

08002a40 <HAL_SPI_Init>:
  * @retval HAL status
  */
HAL_StatusTypeDef HAL_SPI_Init(SPI_HandleTypeDef *hspi)
{
  /* Check the SPI handle allocation */
  if (hspi == NULL)
 8002a40:	2800      	cmp	r0, #0
 8002a42:	d05a      	beq.n	8002afa <HAL_SPI_Init+0xba>
{
 8002a44:	b510      	push	{r4, lr}
 8002a46:	4604      	mov	r4, r0
  assert_param(IS_SPI_DATASIZE(hspi->Init.DataSize));
  assert_param(IS_SPI_NSS(hspi->Init.NSS));
  assert_param(IS_SPI_BAUDRATE_PRESCALER(hspi->Init.BaudRatePrescaler));
  assert_param(IS_SPI_FIRST_BIT(hspi->Init.FirstBit));
  assert_param(IS_SPI_TIMODE(hspi->Init.TIMode));
  if (hspi->Init.TIMode == SPI_TIMODE_DISABLE)
 8002a48:	6a43      	ldr	r3, [r0, #36]	@ 0x24
 8002a4a:	b933      	cbnz	r3, 8002a5a <HAL_SPI_Init+0x1a>
  {
    assert_param(IS_SPI_CPOL(hspi->Init.CLKPolarity));
    assert_param(IS_SPI_CPHA(hspi->Init.CLKPhase));

    if (hspi->Init.Mode == SPI_MODE_MASTER)
 8002a4c:	6843      	ldr	r3, [r0, #4]
 8002a4e:	f5b3 7f82 	cmp.w	r3, #260	@ 0x104
 8002a52:	d005      	beq.n	8002a60 <HAL_SPI_Init+0x20>
      assert_param(IS_SPI_BAUDRATE_PRESCALER(hspi->Init.BaudRatePrescaler));
    }
    else
    {
      /* Baudrate prescaler not use in Motoraola Slave mode. force to default value */
      hspi->Init.BaudRatePrescaler = SPI_BAUDRATEPRESCALER_2;
 8002a54:	2300      	movs	r3, #0
 8002a56:	61c3      	str	r3, [r0, #28]
 8002a58:	e002      	b.n	8002a60 <HAL_SPI_Init+0x20>
  else
  {
    assert_param(IS_SPI_BAUDRATE_PRESCALER(hspi->Init.BaudRatePrescaler));

    /* Force polarity and phase to TI protocaol requirements */
    hspi->Init.CLKPolarity = SPI_POLARITY_LOW;
 8002a5a:	2300      	movs	r3, #0
 8002a5c:	6103      	str	r3, [r0, #16]
    hspi->Init.CLKPhase    = SPI_PHASE_1EDGE;
 8002a5e:	6143      	str	r3, [r0, #20]
  if (hspi->Init.CRCCalculation == SPI_CRCCALCULATION_ENABLE)
  {
    assert_param(IS_SPI_CRC_POLYNOMIAL(hspi->Init.CRCPolynomial));
  }
#else
  hspi->Init.CRCCalculation = SPI_CRCCALCULATION_DISABLE;
 8002a60:	2300      	movs	r3, #0
 8002a62:	62a3      	str	r3, [r4, #40]	@ 0x28
#endif /* USE_SPI_CRC */

  if (hspi->State == HAL_SPI_STATE_RESET)
 8002a64:	f894 3051 	ldrb.w	r3, [r4, #81]	@ 0x51
 8002a68:	2b00      	cmp	r3, #0
 8002a6a:	d040      	beq.n	8002aee <HAL_SPI_Init+0xae>
    /* Init the low level hardware : GPIO, CLOCK, NVIC... */
    HAL_SPI_MspInit(hspi);
#endif /* USE_HAL_SPI_REGISTER_CALLBACKS */
  }

  hspi->State = HAL_SPI_STATE_BUSY;
 8002a6c:	2302      	movs	r3, #2
 8002a6e:	f884 3051 	strb.w	r3, [r4, #81]	@ 0x51

  /* Disable the selected SPI peripheral */
  __HAL_SPI_DISABLE(hspi);
 8002a72:	6822      	ldr	r2, [r4, #0]
 8002a74:	6813      	ldr	r3, [r2, #0]
 8002a76:	f023 0340 	bic.w	r3, r3, #64	@ 0x40
 8002a7a:	6013      	str	r3, [r2, #0]

  /*----------------------- SPIx CR1 & CR2 Configuration ---------------------*/
  /* Configure : SPI Mode, Communication Mode, Data size, Clock polarity and phase, NSS management,
  Communication speed, First bit and CRC calculation state */
  WRITE_REG(hspi->Instance->CR1, ((hspi->Init.Mode & (SPI_CR1_MSTR | SPI_CR1_SSI)) |
 8002a7c:	6863      	ldr	r3, [r4, #4]
 8002a7e:	f403 7382 	and.w	r3, r3, #260	@ 0x104
 8002a82:	68a2      	ldr	r2, [r4, #8]
 8002a84:	f402 4204 	and.w	r2, r2, #33792	@ 0x8400
 8002a88:	4313      	orrs	r3, r2
 8002a8a:	68e2      	ldr	r2, [r4, #12]
 8002a8c:	f402 6200 	and.w	r2, r2, #2048	@ 0x800
 8002a90:	4313      	orrs	r3, r2
 8002a92:	6922      	ldr	r2, [r4, #16]
 8002a94:	f002 0202 	and.w	r2, r2, #2
 8002a98:	4313      	orrs	r3, r2
 8002a9a:	6962      	ldr	r2, [r4, #20]
 8002a9c:	f002 0201 	and.w	r2, r2, #1
 8002aa0:	4313      	orrs	r3, r2
 8002aa2:	69a2      	ldr	r2, [r4, #24]
 8002aa4:	f402 7200 	and.w	r2, r2, #512	@ 0x200
 8002aa8:	4313      	orrs	r3, r2
 8002aaa:	69e2      	ldr	r2, [r4, #28]
 8002aac:	f002 0238 	and.w	r2, r2, #56	@ 0x38
 8002ab0:	4313      	orrs	r3, r2
 8002ab2:	6a22      	ldr	r2, [r4, #32]
 8002ab4:	f002 0280 	and.w	r2, r2, #128	@ 0x80
 8002ab8:	4313      	orrs	r3, r2
 8002aba:	6aa2      	ldr	r2, [r4, #40]	@ 0x28
 8002abc:	f402 5200 	and.w	r2, r2, #8192	@ 0x2000
 8002ac0:	6821      	ldr	r1, [r4, #0]
 8002ac2:	4313      	orrs	r3, r2
 8002ac4:	600b      	str	r3, [r1, #0]
                                  (hspi->Init.BaudRatePrescaler & SPI_CR1_BR_Msk) |
                                  (hspi->Init.FirstBit  & SPI_CR1_LSBFIRST) |
                                  (hspi->Init.CRCCalculation & SPI_CR1_CRCEN)));

  /* Configure : NSS management, TI Mode */
  WRITE_REG(hspi->Instance->CR2, (((hspi->Init.NSS >> 16U) & SPI_CR2_SSOE) | (hspi->Init.TIMode & SPI_CR2_FRF)));
 8002ac6:	8b63      	ldrh	r3, [r4, #26]
 8002ac8:	f003 0304 	and.w	r3, r3, #4
 8002acc:	6a62      	ldr	r2, [r4, #36]	@ 0x24
 8002ace:	f002 0210 	and.w	r2, r2, #16
 8002ad2:	6821      	ldr	r1, [r4, #0]
 8002ad4:	4313      	orrs	r3, r2
 8002ad6:	604b      	str	r3, [r1, #4]
  }
#endif /* USE_SPI_CRC */

#if defined(SPI_I2SCFGR_I2SMOD)
  /* Activate the SPI mode (Make sure that I2SMOD bit in I2SCFGR register is reset) */
  CLEAR_BIT(hspi->Instance->I2SCFGR, SPI_I2SCFGR_I2SMOD);
 8002ad8:	6822      	ldr	r2, [r4, #0]
 8002ada:	69d3      	ldr	r3, [r2, #28]
 8002adc:	f423 6300 	bic.w	r3, r3, #2048	@ 0x800
 8002ae0:	61d3      	str	r3, [r2, #28]
#endif /* SPI_I2SCFGR_I2SMOD */

  hspi->ErrorCode = HAL_SPI_ERROR_NONE;
 8002ae2:	2000      	movs	r0, #0
 8002ae4:	6560      	str	r0, [r4, #84]	@ 0x54
  hspi->State     = HAL_SPI_STATE_READY;
 8002ae6:	2301      	movs	r3, #1
 8002ae8:	f884 3051 	strb.w	r3, [r4, #81]	@ 0x51

  return HAL_OK;
}
 8002aec:	bd10      	pop	{r4, pc}
    hspi->Lock = HAL_UNLOCKED;
 8002aee:	f884 3050 	strb.w	r3, [r4, #80]	@ 0x50
    HAL_SPI_MspInit(hspi);
 8002af2:	4620      	mov	r0, r4
 8002af4:	f7fe fd16 	bl	8001524 <HAL_SPI_MspInit>
 8002af8:	e7b8      	b.n	8002a6c <HAL_SPI_Init+0x2c>
    return HAL_ERROR;
 8002afa:	2001      	movs	r0, #1
}
 8002afc:	4770      	bx	lr

08002afe <TIM_TI1_ConfigInputStage>:
  * @param  TIM_ICFilter Specifies the Input Capture Filter.
  *          This parameter must be a value between 0x00 and 0x0F.
  * @retval None
  */
static void TIM_TI1_ConfigInputStage(TIM_TypeDef *TIMx, uint32_t TIM_ICPolarity, uint32_t TIM_ICFilter)
{
 8002afe:	b410      	push	{r4}
  uint32_t tmpccmr1;
  uint32_t tmpccer;

  /* Disable the Channel 1: Reset the CC1E Bit */
  tmpccer = TIMx->CCER;
 8002b00:	6a03      	ldr	r3, [r0, #32]
  TIMx->CCER &= ~TIM_CCER_CC1E;
 8002b02:	6a04      	ldr	r4, [r0, #32]
 8002b04:	f024 0401 	bic.w	r4, r4, #1
 8002b08:	6204      	str	r4, [r0, #32]
  tmpccmr1 = TIMx->CCMR1;
 8002b0a:	6984      	ldr	r4, [r0, #24]

  /* Set the filter */
  tmpccmr1 &= ~TIM_CCMR1_IC1F;
 8002b0c:	f024 0cf0 	bic.w	ip, r4, #240	@ 0xf0
  tmpccmr1 |= (TIM_ICFilter << 4U);
 8002b10:	ea4c 1202 	orr.w	r2, ip, r2, lsl #4

  /* Select the Polarity and set the CC1E Bit */
  tmpccer &= ~(TIM_CCER_CC1P | TIM_CCER_CC1NP);
 8002b14:	f023 030a 	bic.w	r3, r3, #10
  tmpccer |= TIM_ICPolarity;
 8002b18:	430b      	orrs	r3, r1

  /* Write to TIMx CCMR1 and CCER registers */
  TIMx->CCMR1 = tmpccmr1;
 8002b1a:	6182      	str	r2, [r0, #24]
  TIMx->CCER = tmpccer;
 8002b1c:	6203      	str	r3, [r0, #32]
}
 8002b1e:	f85d 4b04 	ldr.w	r4, [sp], #4
 8002b22:	4770      	bx	lr

08002b24 <TIM_TI2_ConfigInputStage>:
  * @param  TIM_ICFilter Specifies the Input Capture Filter.
  *          This parameter must be a value between 0x00 and 0x0F.
  * @retval None
  */
static void TIM_TI2_ConfigInputStage(TIM_TypeDef *TIMx, uint32_t TIM_ICPolarity, uint32_t TIM_ICFilter)
{
 8002b24:	b410      	push	{r4}
  uint32_t tmpccmr1;
  uint32_t tmpccer;

  /* Disable the Channel 2: Reset the CC2E Bit */
  tmpccer = TIMx->CCER;
 8002b26:	6a03      	ldr	r3, [r0, #32]
  TIMx->CCER &= ~TIM_CCER_CC2E;
 8002b28:	6a04      	ldr	r4, [r0, #32]
 8002b2a:	f024 0410 	bic.w	r4, r4, #16
 8002b2e:	6204      	str	r4, [r0, #32]
  tmpccmr1 = TIMx->CCMR1;
 8002b30:	6984      	ldr	r4, [r0, #24]

  /* Set the filter */
  tmpccmr1 &= ~TIM_CCMR1_IC2F;
 8002b32:	f424 4c70 	bic.w	ip, r4, #61440	@ 0xf000
  tmpccmr1 |= (TIM_ICFilter << 12U);
 8002b36:	ea4c 3202 	orr.w	r2, ip, r2, lsl #12

  /* Select the Polarity and set the CC2E Bit */
  tmpccer &= ~(TIM_CCER_CC2P | TIM_CCER_CC2NP);
 8002b3a:	f023 03a0 	bic.w	r3, r3, #160	@ 0xa0
  tmpccer |= (TIM_ICPolarity << 4U);
 8002b3e:	ea43 1301 	orr.w	r3, r3, r1, lsl #4

  /* Write to TIMx CCMR1 and CCER registers */
  TIMx->CCMR1 = tmpccmr1 ;
 8002b42:	6182      	str	r2, [r0, #24]
  TIMx->CCER = tmpccer;
 8002b44:	6203      	str	r3, [r0, #32]
}
 8002b46:	f85d 4b04 	ldr.w	r4, [sp], #4
 8002b4a:	4770      	bx	lr

08002b4c <TIM_ITRx_SetConfig>:
static void TIM_ITRx_SetConfig(TIM_TypeDef *TIMx, uint32_t InputTriggerSource)
{
  uint32_t tmpsmcr;

  /* Get the TIMx SMCR register value */
  tmpsmcr = TIMx->SMCR;
 8002b4c:	6883      	ldr	r3, [r0, #8]
  /* Reset the TS Bits */
  tmpsmcr &= ~TIM_SMCR_TS;
 8002b4e:	f023 0370 	bic.w	r3, r3, #112	@ 0x70
  /* Set the Input Trigger source and the slave mode*/
  tmpsmcr |= (InputTriggerSource | TIM_SLAVEMODE_EXTERNAL1);
 8002b52:	430b      	orrs	r3, r1
 8002b54:	f043 0307 	orr.w	r3, r3, #7
  /* Write to TIMx SMCR */
  TIMx->SMCR = tmpsmcr;
 8002b58:	6083      	str	r3, [r0, #8]
}
 8002b5a:	4770      	bx	lr

08002b5c <HAL_TIM_Base_Start_IT>:
  if (htim->State != HAL_TIM_STATE_READY)
 8002b5c:	f890 303d 	ldrb.w	r3, [r0, #61]	@ 0x3d
 8002b60:	b2db      	uxtb	r3, r3
 8002b62:	2b01      	cmp	r3, #1
 8002b64:	d137      	bne.n	8002bd6 <HAL_TIM_Base_Start_IT+0x7a>
  htim->State = HAL_TIM_STATE_BUSY;
 8002b66:	2302      	movs	r3, #2
 8002b68:	f880 303d 	strb.w	r3, [r0, #61]	@ 0x3d
  __HAL_TIM_ENABLE_IT(htim, TIM_IT_UPDATE);
 8002b6c:	6802      	ldr	r2, [r0, #0]
 8002b6e:	68d3      	ldr	r3, [r2, #12]
 8002b70:	f043 0301 	orr.w	r3, r3, #1
 8002b74:	60d3      	str	r3, [r2, #12]
  if (IS_TIM_SLAVE_INSTANCE(htim->Instance))
 8002b76:	6803      	ldr	r3, [r0, #0]
 8002b78:	4a19      	ldr	r2, [pc, #100]	@ (8002be0 <HAL_TIM_Base_Start_IT+0x84>)
 8002b7a:	4293      	cmp	r3, r2
 8002b7c:	d020      	beq.n	8002bc0 <HAL_TIM_Base_Start_IT+0x64>
 8002b7e:	f1b3 4f80 	cmp.w	r3, #1073741824	@ 0x40000000
 8002b82:	d01d      	beq.n	8002bc0 <HAL_TIM_Base_Start_IT+0x64>
 8002b84:	f5a2 427c 	sub.w	r2, r2, #64512	@ 0xfc00
 8002b88:	4293      	cmp	r3, r2
 8002b8a:	d019      	beq.n	8002bc0 <HAL_TIM_Base_Start_IT+0x64>
 8002b8c:	f502 6280 	add.w	r2, r2, #1024	@ 0x400
 8002b90:	4293      	cmp	r3, r2
 8002b92:	d015      	beq.n	8002bc0 <HAL_TIM_Base_Start_IT+0x64>
 8002b94:	f502 6280 	add.w	r2, r2, #1024	@ 0x400
 8002b98:	4293      	cmp	r3, r2
 8002b9a:	d011      	beq.n	8002bc0 <HAL_TIM_Base_Start_IT+0x64>
 8002b9c:	f502 4278 	add.w	r2, r2, #63488	@ 0xf800
 8002ba0:	4293      	cmp	r3, r2
 8002ba2:	d00d      	beq.n	8002bc0 <HAL_TIM_Base_Start_IT+0x64>
 8002ba4:	f502 5270 	add.w	r2, r2, #15360	@ 0x3c00
 8002ba8:	4293      	cmp	r3, r2
 8002baa:	d009      	beq.n	8002bc0 <HAL_TIM_Base_Start_IT+0x64>
 8002bac:	f5a2 3294 	sub.w	r2, r2, #75776	@ 0x12800
 8002bb0:	4293      	cmp	r3, r2
 8002bb2:	d005      	beq.n	8002bc0 <HAL_TIM_Base_Start_IT+0x64>
    __HAL_TIM_ENABLE(htim);
 8002bb4:	681a      	ldr	r2, [r3, #0]
 8002bb6:	f042 0201 	orr.w	r2, r2, #1
 8002bba:	601a      	str	r2, [r3, #0]
  return HAL_OK;
 8002bbc:	2000      	movs	r0, #0
 8002bbe:	4770      	bx	lr
    tmpsmcr = htim->Instance->SMCR & TIM_SMCR_SMS;
 8002bc0:	689a      	ldr	r2, [r3, #8]
 8002bc2:	f002 0207 	and.w	r2, r2, #7
    if (!IS_TIM_SLAVEMODE_TRIGGER_ENABLED(tmpsmcr))
 8002bc6:	2a06      	cmp	r2, #6
 8002bc8:	d007      	beq.n	8002bda <HAL_TIM_Base_Start_IT+0x7e>
      __HAL_TIM_ENABLE(htim);
 8002bca:	681a      	ldr	r2, [r3, #0]
 8002bcc:	f042 0201 	orr.w	r2, r2, #1
 8002bd0:	601a      	str	r2, [r3, #0]
  return HAL_OK;
 8002bd2:	2000      	movs	r0, #0
 8002bd4:	4770      	bx	lr
    return HAL_ERROR;
 8002bd6:	2001      	movs	r0, #1
 8002bd8:	4770      	bx	lr
  return HAL_OK;
 8002bda:	2000      	movs	r0, #0
}
 8002bdc:	4770      	bx	lr
 8002bde:	bf00      	nop
 8002be0:	40010000 	.word	0x40010000

08002be4 <HAL_TIM_OC_DelayElapsedCallback>:
}
 8002be4:	4770      	bx	lr

08002be6 <HAL_TIM_IC_CaptureCallback>:
}
 8002be6:	4770      	bx	lr

08002be8 <HAL_TIM_PWM_PulseFinishedCallback>:
}
 8002be8:	4770      	bx	lr

08002bea <HAL_TIM_TriggerCallback>:
}
 8002bea:	4770      	bx	lr

08002bec <HAL_TIM_IRQHandler>:
{
 8002bec:	b570      	push	{r4, r5, r6, lr}
 8002bee:	4604      	mov	r4, r0
  uint32_t itsource = htim->Instance->DIER;
 8002bf0:	6803      	ldr	r3, [r0, #0]
 8002bf2:	68de      	ldr	r6, [r3, #12]
  uint32_t itflag   = htim->Instance->SR;
 8002bf4:	691d      	ldr	r5, [r3, #16]
  if ((itflag & (TIM_FLAG_CC1)) == (TIM_FLAG_CC1))
 8002bf6:	f015 0f02 	tst.w	r5, #2
 8002bfa:	d010      	beq.n	8002c1e <HAL_TIM_IRQHandler+0x32>
    if ((itsource & (TIM_IT_CC1)) == (TIM_IT_CC1))
 8002bfc:	f016 0f02 	tst.w	r6, #2
 8002c00:	d00d      	beq.n	8002c1e <HAL_TIM_IRQHandler+0x32>
        __HAL_TIM_CLEAR_FLAG(htim, TIM_FLAG_CC1);
 8002c02:	f06f 0202 	mvn.w	r2, #2
 8002c06:	611a      	str	r2, [r3, #16]
        htim->Channel = HAL_TIM_ACTIVE_CHANNEL_1;
 8002c08:	2301      	movs	r3, #1
 8002c0a:	7703      	strb	r3, [r0, #28]
        if ((htim->Instance->CCMR1 & TIM_CCMR1_CC1S) != 0x00U)
 8002c0c:	6803      	ldr	r3, [r0, #0]
 8002c0e:	699b      	ldr	r3, [r3, #24]
 8002c10:	f013 0f03 	tst.w	r3, #3
 8002c14:	d05e      	beq.n	8002cd4 <HAL_TIM_IRQHandler+0xe8>
          HAL_TIM_IC_CaptureCallback(htim);
 8002c16:	f7ff ffe6 	bl	8002be6 <HAL_TIM_IC_CaptureCallback>
        htim->Channel = HAL_TIM_ACTIVE_CHANNEL_CLEARED;
 8002c1a:	2300      	movs	r3, #0
 8002c1c:	7723      	strb	r3, [r4, #28]
  if ((itflag & (TIM_FLAG_CC2)) == (TIM_FLAG_CC2))
 8002c1e:	f015 0f04 	tst.w	r5, #4
 8002c22:	d012      	beq.n	8002c4a <HAL_TIM_IRQHandler+0x5e>
    if ((itsource & (TIM_IT_CC2)) == (TIM_IT_CC2))
 8002c24:	f016 0f04 	tst.w	r6, #4
 8002c28:	d00f      	beq.n	8002c4a <HAL_TIM_IRQHandler+0x5e>
      __HAL_TIM_CLEAR_FLAG(htim, TIM_FLAG_CC2);
 8002c2a:	6823      	ldr	r3, [r4, #0]
 8002c2c:	f06f 0204 	mvn.w	r2, #4
 8002c30:	611a      	str	r2, [r3, #16]
      htim->Channel = HAL_TIM_ACTIVE_CHANNEL_2;
 8002c32:	2302      	movs	r3, #2
 8002c34:	7723      	strb	r3, [r4, #28]
      if ((htim->Instance->CCMR1 & TIM_CCMR1_CC2S) != 0x00U)
 8002c36:	6823      	ldr	r3, [r4, #0]
 8002c38:	699b      	ldr	r3, [r3, #24]
 8002c3a:	f413 7f40 	tst.w	r3, #768	@ 0x300
 8002c3e:	d04f      	beq.n	8002ce0 <HAL_TIM_IRQHandler+0xf4>
        HAL_TIM_IC_CaptureCallback(htim);
 8002c40:	4620      	mov	r0, r4
 8002c42:	f7ff ffd0 	bl	8002be6 <HAL_TIM_IC_CaptureCallback>
      htim->Channel = HAL_TIM_ACTIVE_CHANNEL_CLEARED;
 8002c46:	2300      	movs	r3, #0
 8002c48:	7723      	strb	r3, [r4, #28]
  if ((itflag & (TIM_FLAG_CC3)) == (TIM_FLAG_CC3))
 8002c4a:	f015 0f08 	tst.w	r5, #8
 8002c4e:	d012      	beq.n	8002c76 <HAL_TIM_IRQHandler+0x8a>
    if ((itsource & (TIM_IT_CC3)) == (TIM_IT_CC3))
 8002c50:	f016 0f08 	tst.w	r6, #8
 8002c54:	d00f      	beq.n	8002c76 <HAL_TIM_IRQHandler+0x8a>
      __HAL_TIM_CLEAR_FLAG(htim, TIM_FLAG_CC3);
 8002c56:	6823      	ldr	r3, [r4, #0]
 8002c58:	f06f 0208 	mvn.w	r2, #8
 8002c5c:	611a      	str	r2, [r3, #16]
      htim->Channel = HAL_TIM_ACTIVE_CHANNEL_3;
 8002c5e:	2304      	movs	r3, #4
 8002c60:	7723      	strb	r3, [r4, #28]
      if ((htim->Instance->CCMR2 & TIM_CCMR2_CC3S) != 0x00U)
 8002c62:	6823      	ldr	r3, [r4, #0]
 8002c64:	69db      	ldr	r3, [r3, #28]
 8002c66:	f013 0f03 	tst.w	r3, #3
 8002c6a:	d040      	beq.n	8002cee <HAL_TIM_IRQHandler+0x102>
        HAL_TIM_IC_CaptureCallback(htim);
 8002c6c:	4620      	mov	r0, r4
 8002c6e:	f7ff ffba 	bl	8002be6 <HAL_TIM_IC_CaptureCallback>
      htim->Channel = HAL_TIM_ACTIVE_CHANNEL_CLEARED;
 8002c72:	2300      	movs	r3, #0
 8002c74:	7723      	strb	r3, [r4, #28]
  if ((itflag & (TIM_FLAG_CC4)) == (TIM_FLAG_CC4))
 8002c76:	f015 0f10 	tst.w	r5, #16
 8002c7a:	d012      	beq.n	8002ca2 <HAL_TIM_IRQHandler+0xb6>
    if ((itsource & (TIM_IT_CC4)) == (TIM_IT_CC4))
 8002c7c:	f016 0f10 	tst.w	r6, #16
 8002c80:	d00f      	beq.n	8002ca2 <HAL_TIM_IRQHandler+0xb6>
      __HAL_TIM_CLEAR_FLAG(htim, TIM_FLAG_CC4);
 8002c82:	6823      	ldr	r3, [r4, #0]
 8002c84:	f06f 0210 	mvn.w	r2, #16
 8002c88:	611a      	str	r2, [r3, #16]
      htim->Channel = HAL_TIM_ACTIVE_CHANNEL_4;
 8002c8a:	2308      	movs	r3, #8
 8002c8c:	7723      	strb	r3, [r4, #28]
      if ((htim->Instance->CCMR2 & TIM_CCMR2_CC4S) != 0x00U)
 8002c8e:	6823      	ldr	r3, [r4, #0]
 8002c90:	69db      	ldr	r3, [r3, #28]
 8002c92:	f413 7f40 	tst.w	r3, #768	@ 0x300
 8002c96:	d031      	beq.n	8002cfc <HAL_TIM_IRQHandler+0x110>
        HAL_TIM_IC_CaptureCallback(htim);
 8002c98:	4620      	mov	r0, r4
 8002c9a:	f7ff ffa4 	bl	8002be6 <HAL_TIM_IC_CaptureCallback>
      htim->Channel = HAL_TIM_ACTIVE_CHANNEL_CLEARED;
 8002c9e:	2300      	movs	r3, #0
 8002ca0:	7723      	strb	r3, [r4, #28]
  if ((itflag & (TIM_FLAG_UPDATE)) == (TIM_FLAG_UPDATE))
 8002ca2:	f015 0f01 	tst.w	r5, #1
 8002ca6:	d002      	beq.n	8002cae <HAL_TIM_IRQHandler+0xc2>
    if ((itsource & (TIM_IT_UPDATE)) == (TIM_IT_UPDATE))
 8002ca8:	f016 0f01 	tst.w	r6, #1
 8002cac:	d12d      	bne.n	8002d0a <HAL_TIM_IRQHandler+0x11e>
  if ((itflag & (TIM_FLAG_BREAK)) == (TIM_FLAG_BREAK))
 8002cae:	f015 0f80 	tst.w	r5, #128	@ 0x80
 8002cb2:	d002      	beq.n	8002cba <HAL_TIM_IRQHandler+0xce>
    if ((itsource & (TIM_IT_BREAK)) == (TIM_IT_BREAK))
 8002cb4:	f016 0f80 	tst.w	r6, #128	@ 0x80
 8002cb8:	d12f      	bne.n	8002d1a <HAL_TIM_IRQHandler+0x12e>
  if ((itflag & (TIM_FLAG_TRIGGER)) == (TIM_FLAG_TRIGGER))
 8002cba:	f015 0f40 	tst.w	r5, #64	@ 0x40
 8002cbe:	d002      	beq.n	8002cc6 <HAL_TIM_IRQHandler+0xda>
    if ((itsource & (TIM_IT_TRIGGER)) == (TIM_IT_TRIGGER))
 8002cc0:	f016 0f40 	tst.w	r6, #64	@ 0x40
 8002cc4:	d131      	bne.n	8002d2a <HAL_TIM_IRQHandler+0x13e>
  if ((itflag & (TIM_FLAG_COM)) == (TIM_FLAG_COM))
 8002cc6:	f015 0f20 	tst.w	r5, #32
 8002cca:	d002      	beq.n	8002cd2 <HAL_TIM_IRQHandler+0xe6>
    if ((itsource & (TIM_IT_COM)) == (TIM_IT_COM))
 8002ccc:	f016 0f20 	tst.w	r6, #32
 8002cd0:	d133      	bne.n	8002d3a <HAL_TIM_IRQHandler+0x14e>
}
 8002cd2:	bd70      	pop	{r4, r5, r6, pc}
          HAL_TIM_OC_DelayElapsedCallback(htim);
 8002cd4:	f7ff ff86 	bl	8002be4 <HAL_TIM_OC_DelayElapsedCallback>
          HAL_TIM_PWM_PulseFinishedCallback(htim);
 8002cd8:	4620      	mov	r0, r4
 8002cda:	f7ff ff85 	bl	8002be8 <HAL_TIM_PWM_PulseFinishedCallback>
 8002cde:	e79c      	b.n	8002c1a <HAL_TIM_IRQHandler+0x2e>
        HAL_TIM_OC_DelayElapsedCallback(htim);
 8002ce0:	4620      	mov	r0, r4
 8002ce2:	f7ff ff7f 	bl	8002be4 <HAL_TIM_OC_DelayElapsedCallback>
        HAL_TIM_PWM_PulseFinishedCallback(htim);
 8002ce6:	4620      	mov	r0, r4
 8002ce8:	f7ff ff7e 	bl	8002be8 <HAL_TIM_PWM_PulseFinishedCallback>
 8002cec:	e7ab      	b.n	8002c46 <HAL_TIM_IRQHandler+0x5a>
        HAL_TIM_OC_DelayElapsedCallback(htim);
 8002cee:	4620      	mov	r0, r4
 8002cf0:	f7ff ff78 	bl	8002be4 <HAL_TIM_OC_DelayElapsedCallback>
        HAL_TIM_PWM_PulseFinishedCallback(htim);
 8002cf4:	4620      	mov	r0, r4
 8002cf6:	f7ff ff77 	bl	8002be8 <HAL_TIM_PWM_PulseFinishedCallback>
 8002cfa:	e7ba      	b.n	8002c72 <HAL_TIM_IRQHandler+0x86>
        HAL_TIM_OC_DelayElapsedCallback(htim);
 8002cfc:	4620      	mov	r0, r4
 8002cfe:	f7ff ff71 	bl	8002be4 <HAL_TIM_OC_DelayElapsedCallback>
        HAL_TIM_PWM_PulseFinishedCallback(htim);
 8002d02:	4620      	mov	r0, r4
 8002d04:	f7ff ff70 	bl	8002be8 <HAL_TIM_PWM_PulseFinishedCallback>
 8002d08:	e7c9      	b.n	8002c9e <HAL_TIM_IRQHandler+0xb2>
      __HAL_TIM_CLEAR_FLAG(htim, TIM_FLAG_UPDATE);
 8002d0a:	6823      	ldr	r3, [r4, #0]
 8002d0c:	f06f 0201 	mvn.w	r2, #1
 8002d10:	611a      	str	r2, [r3, #16]
      HAL_TIM_PeriodElapsedCallback(htim);
 8002d12:	4620      	mov	r0, r4
 8002d14:	f7fd ffa4 	bl	8000c60 <HAL_TIM_PeriodElapsedCallback>
 8002d18:	e7c9      	b.n	8002cae <HAL_TIM_IRQHandler+0xc2>
      __HAL_TIM_CLEAR_FLAG(htim, TIM_FLAG_BREAK);
 8002d1a:	6823      	ldr	r3, [r4, #0]
 8002d1c:	f06f 0280 	mvn.w	r2, #128	@ 0x80
 8002d20:	611a      	str	r2, [r3, #16]
      HAL_TIMEx_BreakCallback(htim);
 8002d22:	4620      	mov	r0, r4
 8002d24:	f000 f97d 	bl	8003022 <HAL_TIMEx_BreakCallback>
 8002d28:	e7c7      	b.n	8002cba <HAL_TIM_IRQHandler+0xce>
      __HAL_TIM_CLEAR_FLAG(htim, TIM_FLAG_TRIGGER);
 8002d2a:	6823      	ldr	r3, [r4, #0]
 8002d2c:	f06f 0240 	mvn.w	r2, #64	@ 0x40
 8002d30:	611a      	str	r2, [r3, #16]
      HAL_TIM_TriggerCallback(htim);
 8002d32:	4620      	mov	r0, r4
 8002d34:	f7ff ff59 	bl	8002bea <HAL_TIM_TriggerCallback>
 8002d38:	e7c5      	b.n	8002cc6 <HAL_TIM_IRQHandler+0xda>
      __HAL_TIM_CLEAR_FLAG(htim, TIM_FLAG_COM);
 8002d3a:	6823      	ldr	r3, [r4, #0]
 8002d3c:	f06f 0220 	mvn.w	r2, #32
 8002d40:	611a      	str	r2, [r3, #16]
      HAL_TIMEx_CommutCallback(htim);
 8002d42:	4620      	mov	r0, r4
 8002d44:	f000 f96c 	bl	8003020 <HAL_TIMEx_CommutCallback>
}
 8002d48:	e7c3      	b.n	8002cd2 <HAL_TIM_IRQHandler+0xe6>
	...

08002d4c <TIM_Base_SetConfig>:
  tmpcr1 = TIMx->CR1;
 8002d4c:	6803      	ldr	r3, [r0, #0]
  if (IS_TIM_COUNTER_MODE_SELECT_INSTANCE(TIMx))
 8002d4e:	4a34      	ldr	r2, [pc, #208]	@ (8002e20 <TIM_Base_SetConfig+0xd4>)
 8002d50:	4290      	cmp	r0, r2
 8002d52:	d012      	beq.n	8002d7a <TIM_Base_SetConfig+0x2e>
 8002d54:	f1b0 4f80 	cmp.w	r0, #1073741824	@ 0x40000000
 8002d58:	d00f      	beq.n	8002d7a <TIM_Base_SetConfig+0x2e>
 8002d5a:	f5a2 427c 	sub.w	r2, r2, #64512	@ 0xfc00
 8002d5e:	4290      	cmp	r0, r2
 8002d60:	d00b      	beq.n	8002d7a <TIM_Base_SetConfig+0x2e>
 8002d62:	f502 6280 	add.w	r2, r2, #1024	@ 0x400
 8002d66:	4290      	cmp	r0, r2
 8002d68:	d007      	beq.n	8002d7a <TIM_Base_SetConfig+0x2e>
 8002d6a:	f502 6280 	add.w	r2, r2, #1024	@ 0x400
 8002d6e:	4290      	cmp	r0, r2
 8002d70:	d003      	beq.n	8002d7a <TIM_Base_SetConfig+0x2e>
 8002d72:	f502 4278 	add.w	r2, r2, #63488	@ 0xf800
 8002d76:	4290      	cmp	r0, r2
 8002d78:	d103      	bne.n	8002d82 <TIM_Base_SetConfig+0x36>
    tmpcr1 &= ~(TIM_CR1_DIR | TIM_CR1_CMS);
 8002d7a:	f023 0370 	bic.w	r3, r3, #112	@ 0x70
    tmpcr1 |= Structure->CounterMode;
 8002d7e:	684a      	ldr	r2, [r1, #4]
 8002d80:	4313      	orrs	r3, r2
  if (IS_TIM_CLOCK_DIVISION_INSTANCE(TIMx))
 8002d82:	4a27      	ldr	r2, [pc, #156]	@ (8002e20 <TIM_Base_SetConfig+0xd4>)
 8002d84:	4290      	cmp	r0, r2
 8002d86:	d02a      	beq.n	8002dde <TIM_Base_SetConfig+0x92>
 8002d88:	f1b0 4f80 	cmp.w	r0, #1073741824	@ 0x40000000
 8002d8c:	d027      	beq.n	8002dde <TIM_Base_SetConfig+0x92>
 8002d8e:	f5a2 427c 	sub.w	r2, r2, #64512	@ 0xfc00
 8002d92:	4290      	cmp	r0, r2
 8002d94:	d023      	beq.n	8002dde <TIM_Base_SetConfig+0x92>
 8002d96:	f502 6280 	add.w	r2, r2, #1024	@ 0x400
 8002d9a:	4290      	cmp	r0, r2
 8002d9c:	d01f      	beq.n	8002dde <TIM_Base_SetConfig+0x92>
 8002d9e:	f502 6280 	add.w	r2, r2, #1024	@ 0x400
 8002da2:	4290      	cmp	r0, r2
 8002da4:	d01b      	beq.n	8002dde <TIM_Base_SetConfig+0x92>
 8002da6:	f502 4278 	add.w	r2, r2, #63488	@ 0xf800
 8002daa:	4290      	cmp	r0, r2
 8002dac:	d017      	beq.n	8002dde <TIM_Base_SetConfig+0x92>
 8002dae:	f502 5270 	add.w	r2, r2, #15360	@ 0x3c00
 8002db2:	4290      	cmp	r0, r2
 8002db4:	d013      	beq.n	8002dde <TIM_Base_SetConfig+0x92>
 8002db6:	f502 6280 	add.w	r2, r2, #1024	@ 0x400
 8002dba:	4290      	cmp	r0, r2
 8002dbc:	d00f      	beq.n	8002dde <TIM_Base_SetConfig+0x92>
 8002dbe:	f502 6280 	add.w	r2, r2, #1024	@ 0x400
 8002dc2:	4290      	cmp	r0, r2
 8002dc4:	d00b      	beq.n	8002dde <TIM_Base_SetConfig+0x92>
 8002dc6:	f5a2 3298 	sub.w	r2, r2, #77824	@ 0x13000
 8002dca:	4290      	cmp	r0, r2
 8002dcc:	d007      	beq.n	8002dde <TIM_Base_SetConfig+0x92>
 8002dce:	f502 6280 	add.w	r2, r2, #1024	@ 0x400
 8002dd2:	4290      	cmp	r0, r2
 8002dd4:	d003      	beq.n	8002dde <TIM_Base_SetConfig+0x92>
 8002dd6:	f502 6280 	add.w	r2, r2, #1024	@ 0x400
 8002dda:	4290      	cmp	r0, r2
 8002ddc:	d103      	bne.n	8002de6 <TIM_Base_SetConfig+0x9a>
    tmpcr1 &= ~TIM_CR1_CKD;
 8002dde:	f423 7340 	bic.w	r3, r3, #768	@ 0x300
    tmpcr1 |= (uint32_t)Structure->ClockDivision;
 8002de2:	68ca      	ldr	r2, [r1, #12]
 8002de4:	4313      	orrs	r3, r2
  MODIFY_REG(tmpcr1, TIM_CR1_ARPE, Structure->AutoReloadPreload);
 8002de6:	f023 0380 	bic.w	r3, r3, #128	@ 0x80
 8002dea:	694a      	ldr	r2, [r1, #20]
 8002dec:	4313      	orrs	r3, r2
  TIMx->CR1 = tmpcr1;
 8002dee:	6003      	str	r3, [r0, #0]
  TIMx->ARR = (uint32_t)Structure->Period ;
 8002df0:	688b      	ldr	r3, [r1, #8]
 8002df2:	62c3      	str	r3, [r0, #44]	@ 0x2c
  TIMx->PSC = Structure->Prescaler;
 8002df4:	680b      	ldr	r3, [r1, #0]
 8002df6:	6283      	str	r3, [r0, #40]	@ 0x28
  if (IS_TIM_REPETITION_COUNTER_INSTANCE(TIMx))
 8002df8:	4b09      	ldr	r3, [pc, #36]	@ (8002e20 <TIM_Base_SetConfig+0xd4>)
 8002dfa:	4298      	cmp	r0, r3
 8002dfc:	d003      	beq.n	8002e06 <TIM_Base_SetConfig+0xba>
 8002dfe:	f503 6380 	add.w	r3, r3, #1024	@ 0x400
 8002e02:	4298      	cmp	r0, r3
 8002e04:	d101      	bne.n	8002e0a <TIM_Base_SetConfig+0xbe>
    TIMx->RCR = Structure->RepetitionCounter;
 8002e06:	690b      	ldr	r3, [r1, #16]
 8002e08:	6303      	str	r3, [r0, #48]	@ 0x30
  TIMx->EGR = TIM_EGR_UG;
 8002e0a:	2301      	movs	r3, #1
 8002e0c:	6143      	str	r3, [r0, #20]
  if (HAL_IS_BIT_SET(TIMx->SR, TIM_FLAG_UPDATE))
 8002e0e:	6903      	ldr	r3, [r0, #16]
 8002e10:	f013 0f01 	tst.w	r3, #1
 8002e14:	d003      	beq.n	8002e1e <TIM_Base_SetConfig+0xd2>
    CLEAR_BIT(TIMx->SR, TIM_FLAG_UPDATE);
 8002e16:	6903      	ldr	r3, [r0, #16]
 8002e18:	f023 0301 	bic.w	r3, r3, #1
 8002e1c:	6103      	str	r3, [r0, #16]
}
 8002e1e:	4770      	bx	lr
 8002e20:	40010000 	.word	0x40010000

08002e24 <HAL_TIM_Base_Init>:
  if (htim == NULL)
 8002e24:	b340      	cbz	r0, 8002e78 <HAL_TIM_Base_Init+0x54>
{
 8002e26:	b510      	push	{r4, lr}
 8002e28:	4604      	mov	r4, r0
  if (htim->State == HAL_TIM_STATE_RESET)
 8002e2a:	f890 303d 	ldrb.w	r3, [r0, #61]	@ 0x3d
 8002e2e:	b1f3      	cbz	r3, 8002e6e <HAL_TIM_Base_Init+0x4a>
  htim->State = HAL_TIM_STATE_BUSY;
 8002e30:	2302      	movs	r3, #2
 8002e32:	f884 303d 	strb.w	r3, [r4, #61]	@ 0x3d
  TIM_Base_SetConfig(htim->Instance, &htim->Init);
 8002e36:	4621      	mov	r1, r4
 8002e38:	f851 0b04 	ldr.w	r0, [r1], #4
 8002e3c:	f7ff ff86 	bl	8002d4c <TIM_Base_SetConfig>
  htim->DMABurstState = HAL_DMA_BURST_STATE_READY;
 8002e40:	2301      	movs	r3, #1
 8002e42:	f884 3046 	strb.w	r3, [r4, #70]	@ 0x46
  TIM_CHANNEL_STATE_SET_ALL(htim, HAL_TIM_CHANNEL_STATE_READY);
 8002e46:	f884 303e 	strb.w	r3, [r4, #62]	@ 0x3e
 8002e4a:	f884 303f 	strb.w	r3, [r4, #63]	@ 0x3f
 8002e4e:	f884 3040 	strb.w	r3, [r4, #64]	@ 0x40
 8002e52:	f884 3041 	strb.w	r3, [r4, #65]	@ 0x41
  TIM_CHANNEL_N_STATE_SET_ALL(htim, HAL_TIM_CHANNEL_STATE_READY);
 8002e56:	f884 3042 	strb.w	r3, [r4, #66]	@ 0x42
 8002e5a:	f884 3043 	strb.w	r3, [r4, #67]	@ 0x43
 8002e5e:	f884 3044 	strb.w	r3, [r4, #68]	@ 0x44
 8002e62:	f884 3045 	strb.w	r3, [r4, #69]	@ 0x45
  htim->State = HAL_TIM_STATE_READY;
 8002e66:	f884 303d 	strb.w	r3, [r4, #61]	@ 0x3d
  return HAL_OK;
 8002e6a:	2000      	movs	r0, #0
}
 8002e6c:	bd10      	pop	{r4, pc}
    htim->Lock = HAL_UNLOCKED;
 8002e6e:	f880 303c 	strb.w	r3, [r0, #60]	@ 0x3c
    HAL_TIM_Base_MspInit(htim);
 8002e72:	f7fe fb8d 	bl	8001590 <HAL_TIM_Base_MspInit>
 8002e76:	e7db      	b.n	8002e30 <HAL_TIM_Base_Init+0xc>
    return HAL_ERROR;
 8002e78:	2001      	movs	r0, #1
}
 8002e7a:	4770      	bx	lr

08002e7c <TIM_ETR_SetConfig>:
  *          This parameter must be a value between 0x00 and 0x0F
  * @retval None
  */
void TIM_ETR_SetConfig(TIM_TypeDef *TIMx, uint32_t TIM_ExtTRGPrescaler,
                       uint32_t TIM_ExtTRGPolarity, uint32_t ExtTRGFilter)
{
 8002e7c:	b410      	push	{r4}
  uint32_t tmpsmcr;

  tmpsmcr = TIMx->SMCR;
 8002e7e:	6884      	ldr	r4, [r0, #8]

  /* Reset the ETR Bits */
  tmpsmcr &= ~(TIM_SMCR_ETF | TIM_SMCR_ETPS | TIM_SMCR_ECE | TIM_SMCR_ETP);
 8002e80:	f424 4c7f 	bic.w	ip, r4, #65280	@ 0xff00

  /* Set the Prescaler, the Filter value and the Polarity */
  tmpsmcr |= (uint32_t)(TIM_ExtTRGPrescaler | (TIM_ExtTRGPolarity | (ExtTRGFilter << 8U)));
 8002e84:	ea42 2203 	orr.w	r2, r2, r3, lsl #8
 8002e88:	430a      	orrs	r2, r1
 8002e8a:	ea42 020c 	orr.w	r2, r2, ip

  /* Write to TIMx SMCR */
  TIMx->SMCR = tmpsmcr;
 8002e8e:	6082      	str	r2, [r0, #8]
}
 8002e90:	f85d 4b04 	ldr.w	r4, [sp], #4
 8002e94:	4770      	bx	lr

08002e96 <HAL_TIM_ConfigClockSource>:
  __HAL_LOCK(htim);
 8002e96:	f890 303c 	ldrb.w	r3, [r0, #60]	@ 0x3c
 8002e9a:	2b01      	cmp	r3, #1
 8002e9c:	d078      	beq.n	8002f90 <HAL_TIM_ConfigClockSource+0xfa>
{
 8002e9e:	b510      	push	{r4, lr}
 8002ea0:	4604      	mov	r4, r0
  __HAL_LOCK(htim);
 8002ea2:	2301      	movs	r3, #1
 8002ea4:	f880 303c 	strb.w	r3, [r0, #60]	@ 0x3c
  htim->State = HAL_TIM_STATE_BUSY;
 8002ea8:	2302      	movs	r3, #2
 8002eaa:	f880 303d 	strb.w	r3, [r0, #61]	@ 0x3d
  tmpsmcr = htim->Instance->SMCR;
 8002eae:	6802      	ldr	r2, [r0, #0]
 8002eb0:	6893      	ldr	r3, [r2, #8]
  tmpsmcr &= ~(TIM_SMCR_ETF | TIM_SMCR_ETPS | TIM_SMCR_ECE | TIM_SMCR_ETP);
 8002eb2:	f423 437f 	bic.w	r3, r3, #65280	@ 0xff00
 8002eb6:	f023 0377 	bic.w	r3, r3, #119	@ 0x77
  htim->Instance->SMCR = tmpsmcr;
 8002eba:	6093      	str	r3, [r2, #8]
  switch (sClockSourceConfig->ClockSource)
 8002ebc:	680b      	ldr	r3, [r1, #0]
 8002ebe:	2b60      	cmp	r3, #96	@ 0x60
 8002ec0:	d04c      	beq.n	8002f5c <HAL_TIM_ConfigClockSource+0xc6>
 8002ec2:	d829      	bhi.n	8002f18 <HAL_TIM_ConfigClockSource+0x82>
 8002ec4:	2b40      	cmp	r3, #64	@ 0x40
 8002ec6:	d054      	beq.n	8002f72 <HAL_TIM_ConfigClockSource+0xdc>
 8002ec8:	d90c      	bls.n	8002ee4 <HAL_TIM_ConfigClockSource+0x4e>
 8002eca:	2b50      	cmp	r3, #80	@ 0x50
 8002ecc:	d122      	bne.n	8002f14 <HAL_TIM_ConfigClockSource+0x7e>
      TIM_TI1_ConfigInputStage(htim->Instance,
 8002ece:	68ca      	ldr	r2, [r1, #12]
 8002ed0:	6849      	ldr	r1, [r1, #4]
 8002ed2:	6800      	ldr	r0, [r0, #0]
 8002ed4:	f7ff fe13 	bl	8002afe <TIM_TI1_ConfigInputStage>
      TIM_ITRx_SetConfig(htim->Instance, TIM_CLOCKSOURCE_TI1);
 8002ed8:	2150      	movs	r1, #80	@ 0x50
 8002eda:	6820      	ldr	r0, [r4, #0]
 8002edc:	f7ff fe36 	bl	8002b4c <TIM_ITRx_SetConfig>
  HAL_StatusTypeDef status = HAL_OK;
 8002ee0:	2000      	movs	r0, #0
      break;
 8002ee2:	e005      	b.n	8002ef0 <HAL_TIM_ConfigClockSource+0x5a>
  switch (sClockSourceConfig->ClockSource)
 8002ee4:	2b20      	cmp	r3, #32
 8002ee6:	d00d      	beq.n	8002f04 <HAL_TIM_ConfigClockSource+0x6e>
 8002ee8:	d909      	bls.n	8002efe <HAL_TIM_ConfigClockSource+0x68>
 8002eea:	2b30      	cmp	r3, #48	@ 0x30
 8002eec:	d00a      	beq.n	8002f04 <HAL_TIM_ConfigClockSource+0x6e>
      status = HAL_ERROR;
 8002eee:	2001      	movs	r0, #1
  htim->State = HAL_TIM_STATE_READY;
 8002ef0:	2301      	movs	r3, #1
 8002ef2:	f884 303d 	strb.w	r3, [r4, #61]	@ 0x3d
  __HAL_UNLOCK(htim);
 8002ef6:	2300      	movs	r3, #0
 8002ef8:	f884 303c 	strb.w	r3, [r4, #60]	@ 0x3c
}
 8002efc:	bd10      	pop	{r4, pc}
  switch (sClockSourceConfig->ClockSource)
 8002efe:	b10b      	cbz	r3, 8002f04 <HAL_TIM_ConfigClockSource+0x6e>
 8002f00:	2b10      	cmp	r3, #16
 8002f02:	d105      	bne.n	8002f10 <HAL_TIM_ConfigClockSource+0x7a>
      TIM_ITRx_SetConfig(htim->Instance, sClockSourceConfig->ClockSource);
 8002f04:	4619      	mov	r1, r3
 8002f06:	6820      	ldr	r0, [r4, #0]
 8002f08:	f7ff fe20 	bl	8002b4c <TIM_ITRx_SetConfig>
  HAL_StatusTypeDef status = HAL_OK;
 8002f0c:	2000      	movs	r0, #0
      break;
 8002f0e:	e7ef      	b.n	8002ef0 <HAL_TIM_ConfigClockSource+0x5a>
      status = HAL_ERROR;
 8002f10:	2001      	movs	r0, #1
 8002f12:	e7ed      	b.n	8002ef0 <HAL_TIM_ConfigClockSource+0x5a>
 8002f14:	2001      	movs	r0, #1
 8002f16:	e7eb      	b.n	8002ef0 <HAL_TIM_ConfigClockSource+0x5a>
  switch (sClockSourceConfig->ClockSource)
 8002f18:	f5b3 5f80 	cmp.w	r3, #4096	@ 0x1000
 8002f1c:	d034      	beq.n	8002f88 <HAL_TIM_ConfigClockSource+0xf2>
 8002f1e:	f5b3 5f00 	cmp.w	r3, #8192	@ 0x2000
 8002f22:	d10c      	bne.n	8002f3e <HAL_TIM_ConfigClockSource+0xa8>
      TIM_ETR_SetConfig(htim->Instance,
 8002f24:	68cb      	ldr	r3, [r1, #12]
 8002f26:	684a      	ldr	r2, [r1, #4]
 8002f28:	6889      	ldr	r1, [r1, #8]
 8002f2a:	6800      	ldr	r0, [r0, #0]
 8002f2c:	f7ff ffa6 	bl	8002e7c <TIM_ETR_SetConfig>
      htim->Instance->SMCR |= TIM_SMCR_ECE;
 8002f30:	6822      	ldr	r2, [r4, #0]
 8002f32:	6893      	ldr	r3, [r2, #8]
 8002f34:	f443 4380 	orr.w	r3, r3, #16384	@ 0x4000
 8002f38:	6093      	str	r3, [r2, #8]
  HAL_StatusTypeDef status = HAL_OK;
 8002f3a:	2000      	movs	r0, #0
      break;
 8002f3c:	e7d8      	b.n	8002ef0 <HAL_TIM_ConfigClockSource+0x5a>
  switch (sClockSourceConfig->ClockSource)
 8002f3e:	2b70      	cmp	r3, #112	@ 0x70
 8002f40:	d124      	bne.n	8002f8c <HAL_TIM_ConfigClockSource+0xf6>
      TIM_ETR_SetConfig(htim->Instance,
 8002f42:	68cb      	ldr	r3, [r1, #12]
 8002f44:	684a      	ldr	r2, [r1, #4]
 8002f46:	6889      	ldr	r1, [r1, #8]
 8002f48:	6800      	ldr	r0, [r0, #0]
 8002f4a:	f7ff ff97 	bl	8002e7c <TIM_ETR_SetConfig>
      tmpsmcr = htim->Instance->SMCR;
 8002f4e:	6822      	ldr	r2, [r4, #0]
 8002f50:	6893      	ldr	r3, [r2, #8]
      tmpsmcr |= (TIM_SLAVEMODE_EXTERNAL1 | TIM_CLOCKSOURCE_ETRMODE1);
 8002f52:	f043 0377 	orr.w	r3, r3, #119	@ 0x77
      htim->Instance->SMCR = tmpsmcr;
 8002f56:	6093      	str	r3, [r2, #8]
  HAL_StatusTypeDef status = HAL_OK;
 8002f58:	2000      	movs	r0, #0
      break;
 8002f5a:	e7c9      	b.n	8002ef0 <HAL_TIM_ConfigClockSource+0x5a>
      TIM_TI2_ConfigInputStage(htim->Instance,
 8002f5c:	68ca      	ldr	r2, [r1, #12]
 8002f5e:	6849      	ldr	r1, [r1, #4]
 8002f60:	6800      	ldr	r0, [r0, #0]
 8002f62:	f7ff fddf 	bl	8002b24 <TIM_TI2_ConfigInputStage>
      TIM_ITRx_SetConfig(htim->Instance, TIM_CLOCKSOURCE_TI2);
 8002f66:	2160      	movs	r1, #96	@ 0x60
 8002f68:	6820      	ldr	r0, [r4, #0]
 8002f6a:	f7ff fdef 	bl	8002b4c <TIM_ITRx_SetConfig>
  HAL_StatusTypeDef status = HAL_OK;
 8002f6e:	2000      	movs	r0, #0
      break;
 8002f70:	e7be      	b.n	8002ef0 <HAL_TIM_ConfigClockSource+0x5a>
      TIM_TI1_ConfigInputStage(htim->Instance,
 8002f72:	68ca      	ldr	r2, [r1, #12]
 8002f74:	6849      	ldr	r1, [r1, #4]
 8002f76:	6800      	ldr	r0, [r0, #0]
 8002f78:	f7ff fdc1 	bl	8002afe <TIM_TI1_ConfigInputStage>
      TIM_ITRx_SetConfig(htim->Instance, TIM_CLOCKSOURCE_TI1ED);
 8002f7c:	2140      	movs	r1, #64	@ 0x40
 8002f7e:	6820      	ldr	r0, [r4, #0]
 8002f80:	f7ff fde4 	bl	8002b4c <TIM_ITRx_SetConfig>
  HAL_StatusTypeDef status = HAL_OK;
 8002f84:	2000      	movs	r0, #0
      break;
 8002f86:	e7b3      	b.n	8002ef0 <HAL_TIM_ConfigClockSource+0x5a>
  switch (sClockSourceConfig->ClockSource)
 8002f88:	2000      	movs	r0, #0
 8002f8a:	e7b1      	b.n	8002ef0 <HAL_TIM_ConfigClockSource+0x5a>
      status = HAL_ERROR;
 8002f8c:	2001      	movs	r0, #1
 8002f8e:	e7af      	b.n	8002ef0 <HAL_TIM_ConfigClockSource+0x5a>
  __HAL_LOCK(htim);
 8002f90:	2002      	movs	r0, #2
}
 8002f92:	4770      	bx	lr

08002f94 <HAL_TIMEx_MasterConfigSynchronization>:
  assert_param(IS_TIM_MASTER_INSTANCE(htim->Instance));
  assert_param(IS_TIM_TRGO_SOURCE(sMasterConfig->MasterOutputTrigger));
  assert_param(IS_TIM_MSM_STATE(sMasterConfig->MasterSlaveMode));

  /* Check input state */
  __HAL_LOCK(htim);
 8002f94:	f890 203c 	ldrb.w	r2, [r0, #60]	@ 0x3c
 8002f98:	2a01      	cmp	r2, #1
 8002f9a:	d03d      	beq.n	8003018 <HAL_TIMEx_MasterConfigSynchronization+0x84>
{
 8002f9c:	b410      	push	{r4}
 8002f9e:	4603      	mov	r3, r0
  __HAL_LOCK(htim);
 8002fa0:	2201      	movs	r2, #1
 8002fa2:	f880 203c 	strb.w	r2, [r0, #60]	@ 0x3c

  /* Change the handler state */
  htim->State = HAL_TIM_STATE_BUSY;
 8002fa6:	2202      	movs	r2, #2
 8002fa8:	f880 203d 	strb.w	r2, [r0, #61]	@ 0x3d

  /* Get the TIMx CR2 register value */
  tmpcr2 = htim->Instance->CR2;
 8002fac:	6802      	ldr	r2, [r0, #0]
 8002fae:	6850      	ldr	r0, [r2, #4]

  /* Get the TIMx SMCR register value */
  tmpsmcr = htim->Instance->SMCR;
 8002fb0:	6894      	ldr	r4, [r2, #8]

  /* Reset the MMS Bits */
  tmpcr2 &= ~TIM_CR2_MMS;
 8002fb2:	f020 0c70 	bic.w	ip, r0, #112	@ 0x70
  /* Select the TRGO source */
  tmpcr2 |=  sMasterConfig->MasterOutputTrigger;
 8002fb6:	6808      	ldr	r0, [r1, #0]
 8002fb8:	ea40 000c 	orr.w	r0, r0, ip

  /* Update TIMx CR2 */
  htim->Instance->CR2 = tmpcr2;
 8002fbc:	6050      	str	r0, [r2, #4]

  if (IS_TIM_SLAVE_INSTANCE(htim->Instance))
 8002fbe:	681a      	ldr	r2, [r3, #0]
 8002fc0:	4816      	ldr	r0, [pc, #88]	@ (800301c <HAL_TIMEx_MasterConfigSynchronization+0x88>)
 8002fc2:	4282      	cmp	r2, r0
 8002fc4:	d01a      	beq.n	8002ffc <HAL_TIMEx_MasterConfigSynchronization+0x68>
 8002fc6:	f1b2 4f80 	cmp.w	r2, #1073741824	@ 0x40000000
 8002fca:	d017      	beq.n	8002ffc <HAL_TIMEx_MasterConfigSynchronization+0x68>
 8002fcc:	f5a0 407c 	sub.w	r0, r0, #64512	@ 0xfc00
 8002fd0:	4282      	cmp	r2, r0
 8002fd2:	d013      	beq.n	8002ffc <HAL_TIMEx_MasterConfigSynchronization+0x68>
 8002fd4:	f500 6080 	add.w	r0, r0, #1024	@ 0x400
 8002fd8:	4282      	cmp	r2, r0
 8002fda:	d00f      	beq.n	8002ffc <HAL_TIMEx_MasterConfigSynchronization+0x68>
 8002fdc:	f500 6080 	add.w	r0, r0, #1024	@ 0x400
 8002fe0:	4282      	cmp	r2, r0
 8002fe2:	d00b      	beq.n	8002ffc <HAL_TIMEx_MasterConfigSynchronization+0x68>
 8002fe4:	f500 4078 	add.w	r0, r0, #63488	@ 0xf800
 8002fe8:	4282      	cmp	r2, r0
 8002fea:	d007      	beq.n	8002ffc <HAL_TIMEx_MasterConfigSynchronization+0x68>
 8002fec:	f500 5070 	add.w	r0, r0, #15360	@ 0x3c00
 8002ff0:	4282      	cmp	r2, r0
 8002ff2:	d003      	beq.n	8002ffc <HAL_TIMEx_MasterConfigSynchronization+0x68>
 8002ff4:	f5a0 3094 	sub.w	r0, r0, #75776	@ 0x12800
 8002ff8:	4282      	cmp	r2, r0
 8002ffa:	d104      	bne.n	8003006 <HAL_TIMEx_MasterConfigSynchronization+0x72>
  {
    /* Reset the MSM Bit */
    tmpsmcr &= ~TIM_SMCR_MSM;
 8002ffc:	f024 0480 	bic.w	r4, r4, #128	@ 0x80
    /* Set master mode */
    tmpsmcr |= sMasterConfig->MasterSlaveMode;
 8003000:	6849      	ldr	r1, [r1, #4]
 8003002:	4321      	orrs	r1, r4

    /* Update TIMx SMCR */
    htim->Instance->SMCR = tmpsmcr;
 8003004:	6091      	str	r1, [r2, #8]
  }

  /* Change the htim state */
  htim->State = HAL_TIM_STATE_READY;
 8003006:	2201      	movs	r2, #1
 8003008:	f883 203d 	strb.w	r2, [r3, #61]	@ 0x3d

  __HAL_UNLOCK(htim);
 800300c:	2000      	movs	r0, #0
 800300e:	f883 003c 	strb.w	r0, [r3, #60]	@ 0x3c

  return HAL_OK;
}
 8003012:	f85d 4b04 	ldr.w	r4, [sp], #4
 8003016:	4770      	bx	lr
  __HAL_LOCK(htim);
 8003018:	2002      	movs	r0, #2
}
 800301a:	4770      	bx	lr
 800301c:	40010000 	.word	0x40010000

08003020 <HAL_TIMEx_CommutCallback>:
  UNUSED(htim);

  /* NOTE : This function should not be modified, when the callback is needed,
            the HAL_TIMEx_CommutCallback could be implemented in the user file
   */
}
 8003020:	4770      	bx	lr

08003022 <HAL_TIMEx_BreakCallback>:
  UNUSED(htim);

  /* NOTE : This function should not be modified, when the callback is needed,
            the HAL_TIMEx_BreakCallback could be implemented in the user file
   */
}
 8003022:	4770      	bx	lr

08003024 <UART_EndTxTransfer>:
  * @retval None
  */
static void UART_EndTxTransfer(UART_HandleTypeDef *huart)
{
  /* Disable TXEIE and TCIE interrupts */
  ATOMIC_CLEAR_BIT(huart->Instance->CR1, (USART_CR1_TXEIE | USART_CR1_TCIE));
 8003024:	6802      	ldr	r2, [r0, #0]
   __ASM volatile ("ldrex %0, %1" : "=r" (result) : "Q" (*addr) );
 8003026:	f102 030c 	add.w	r3, r2, #12
 800302a:	e853 3f00 	ldrex	r3, [r3]
 800302e:	f023 03c0 	bic.w	r3, r3, #192	@ 0xc0
   __ASM volatile ("strex %0, %2, %1" : "=&r" (result), "=Q" (*addr) : "r" (value) );
 8003032:	320c      	adds	r2, #12
 8003034:	e842 3100 	strex	r1, r3, [r2]
 8003038:	2900      	cmp	r1, #0
 800303a:	d1f3      	bne.n	8003024 <UART_EndTxTransfer>

  /* At end of Tx process, restore huart->gState to Ready */
  huart->gState = HAL_UART_STATE_READY;
 800303c:	2320      	movs	r3, #32
 800303e:	f880 3041 	strb.w	r3, [r0, #65]	@ 0x41
}
 8003042:	4770      	bx	lr

08003044 <UART_EndRxTransfer>:
  * @retval None
  */
static void UART_EndRxTransfer(UART_HandleTypeDef *huart)
{
  /* Disable RXNE, PE and ERR (Frame error, noise error, overrun error) interrupts */
  ATOMIC_CLEAR_BIT(huart->Instance->CR1, (USART_CR1_RXNEIE | USART_CR1_PEIE));
 8003044:	6802      	ldr	r2, [r0, #0]
   __ASM volatile ("ldrex %0, %1" : "=r" (result) : "Q" (*addr) );
 8003046:	f102 030c 	add.w	r3, r2, #12
 800304a:	e853 3f00 	ldrex	r3, [r3]
 800304e:	f423 7390 	bic.w	r3, r3, #288	@ 0x120
   __ASM volatile ("strex %0, %2, %1" : "=&r" (result), "=Q" (*addr) : "r" (value) );
 8003052:	320c      	adds	r2, #12
 8003054:	e842 3100 	strex	r1, r3, [r2]
 8003058:	2900      	cmp	r1, #0
 800305a:	d1f3      	bne.n	8003044 <UART_EndRxTransfer>
  ATOMIC_CLEAR_BIT(huart->Instance->CR3, USART_CR3_EIE);
 800305c:	6802      	ldr	r2, [r0, #0]
   __ASM volatile ("ldrex %0, %1" : "=r" (result) : "Q" (*addr) );
 800305e:	f102 0314 	add.w	r3, r2, #20
 8003062:	e853 3f00 	ldrex	r3, [r3]
 8003066:	f023 0301 	bic.w	r3, r3, #1
   __ASM volatile ("strex %0, %2, %1" : "=&r" (result), "=Q" (*addr) : "r" (value) );
 800306a:	3214      	adds	r2, #20
 800306c:	e842 3100 	strex	r1, r3, [r2]
 8003070:	2900      	cmp	r1, #0
 8003072:	d1f3      	bne.n	800305c <UART_EndRxTransfer+0x18>

  /* In case of reception waiting for IDLE event, disable also the IDLE IE interrupt source */
  if (huart->ReceptionType == HAL_UART_RECEPTION_TOIDLE)
 8003074:	6b03      	ldr	r3, [r0, #48]	@ 0x30
 8003076:	2b01      	cmp	r3, #1
 8003078:	d005      	beq.n	8003086 <UART_EndRxTransfer+0x42>
  {
    ATOMIC_CLEAR_BIT(huart->Instance->CR1, USART_CR1_IDLEIE);
  }

  /* At end of Rx process, restore huart->RxState to Ready */
  huart->RxState = HAL_UART_STATE_READY;
 800307a:	2320      	movs	r3, #32
 800307c:	f880 3042 	strb.w	r3, [r0, #66]	@ 0x42
  huart->ReceptionType = HAL_UART_RECEPTION_STANDARD;
 8003080:	2300      	movs	r3, #0
 8003082:	6303      	str	r3, [r0, #48]	@ 0x30
}
 8003084:	4770      	bx	lr
    ATOMIC_CLEAR_BIT(huart->Instance->CR1, USART_CR1_IDLEIE);
 8003086:	6802      	ldr	r2, [r0, #0]
   __ASM volatile ("ldrex %0, %1" : "=r" (result) : "Q" (*addr) );
 8003088:	f102 030c 	add.w	r3, r2, #12
 800308c:	e853 3f00 	ldrex	r3, [r3]
 8003090:	f023 0310 	bic.w	r3, r3, #16
   __ASM volatile ("strex %0, %2, %1" : "=&r" (result), "=Q" (*addr) : "r" (value) );
 8003094:	320c      	adds	r2, #12
 8003096:	e842 3100 	strex	r1, r3, [r2]
 800309a:	2900      	cmp	r1, #0
 800309c:	d1f3      	bne.n	8003086 <UART_EndRxTransfer+0x42>
 800309e:	e7ec      	b.n	800307a <UART_EndRxTransfer+0x36>

080030a0 <UART_SetConfig>:
  * @param  huart  Pointer to a UART_HandleTypeDef structure that contains
  *                the configuration information for the specified UART module.
  * @retval None
  */
static void UART_SetConfig(UART_HandleTypeDef *huart)
{
 80030a0:	b510      	push	{r4, lr}
 80030a2:	4604      	mov	r4, r0
  assert_param(IS_UART_MODE(huart->Init.Mode));

  /*-------------------------- USART CR2 Configuration -----------------------*/
  /* Configure the UART Stop Bits: Set STOP[13:12] bits
     according to huart->Init.StopBits value */
  MODIFY_REG(huart->Instance->CR2, USART_CR2_STOP, huart->Init.StopBits);
 80030a4:	6802      	ldr	r2, [r0, #0]
 80030a6:	6913      	ldr	r3, [r2, #16]
 80030a8:	f423 5340 	bic.w	r3, r3, #12288	@ 0x3000
 80030ac:	68c1      	ldr	r1, [r0, #12]
 80030ae:	430b      	orrs	r3, r1
 80030b0:	6113      	str	r3, [r2, #16]
     Set the M bits according to huart->Init.WordLength value
     Set PCE and PS bits according to huart->Init.Parity value
     Set TE and RE bits according to huart->Init.Mode value
     Set OVER8 bit according to huart->Init.OverSampling value */

  tmpreg = (uint32_t)huart->Init.WordLength | huart->Init.Parity | huart->Init.Mode | huart->Init.OverSampling;
 80030b2:	6883      	ldr	r3, [r0, #8]
 80030b4:	6902      	ldr	r2, [r0, #16]
 80030b6:	431a      	orrs	r2, r3
 80030b8:	6943      	ldr	r3, [r0, #20]
 80030ba:	431a      	orrs	r2, r3
 80030bc:	69c3      	ldr	r3, [r0, #28]
 80030be:	431a      	orrs	r2, r3
  MODIFY_REG(huart->Instance->CR1,
 80030c0:	6801      	ldr	r1, [r0, #0]
 80030c2:	68cb      	ldr	r3, [r1, #12]
 80030c4:	f423 4316 	bic.w	r3, r3, #38400	@ 0x9600
 80030c8:	f023 030c 	bic.w	r3, r3, #12
 80030cc:	4313      	orrs	r3, r2
 80030ce:	60cb      	str	r3, [r1, #12]
             (uint32_t)(USART_CR1_M | USART_CR1_PCE | USART_CR1_PS | USART_CR1_TE | USART_CR1_RE | USART_CR1_OVER8),
             tmpreg);

  /*-------------------------- USART CR3 Configuration -----------------------*/
  /* Configure the UART HFC: Set CTSE and RTSE bits according to huart->Init.HwFlowCtl value */
  MODIFY_REG(huart->Instance->CR3, (USART_CR3_RTSE | USART_CR3_CTSE), huart->Init.HwFlowCtl);
 80030d0:	6802      	ldr	r2, [r0, #0]
 80030d2:	6953      	ldr	r3, [r2, #20]
 80030d4:	f423 7340 	bic.w	r3, r3, #768	@ 0x300
 80030d8:	6981      	ldr	r1, [r0, #24]
 80030da:	430b      	orrs	r3, r1
 80030dc:	6153      	str	r3, [r2, #20]
    if ((huart->Instance == USART1) || (huart->Instance == USART6) || (huart->Instance == UART9) || (huart->Instance == UART10))
    {
      pclk = HAL_RCC_GetPCLK2Freq();
    }
#elif defined(USART6)
    if ((huart->Instance == USART1) || (huart->Instance == USART6))
 80030de:	6803      	ldr	r3, [r0, #0]
 80030e0:	4a31      	ldr	r2, [pc, #196]	@ (80031a8 <UART_SetConfig+0x108>)
 80030e2:	4293      	cmp	r3, r2
 80030e4:	d006      	beq.n	80030f4 <UART_SetConfig+0x54>
 80030e6:	f502 6280 	add.w	r2, r2, #1024	@ 0x400
 80030ea:	4293      	cmp	r3, r2
 80030ec:	d002      	beq.n	80030f4 <UART_SetConfig+0x54>
      pclk = HAL_RCC_GetPCLK2Freq();
    }
#endif /* USART6 */
    else
    {
      pclk = HAL_RCC_GetPCLK1Freq();
 80030ee:	f7ff fc49 	bl	8002984 <HAL_RCC_GetPCLK1Freq>
 80030f2:	e001      	b.n	80030f8 <UART_SetConfig+0x58>
      pclk = HAL_RCC_GetPCLK2Freq();
 80030f4:	f7ff fc56 	bl	80029a4 <HAL_RCC_GetPCLK2Freq>
    }
  /*-------------------------- USART BRR Configuration ---------------------*/
  if (huart->Init.OverSampling == UART_OVERSAMPLING_8)
 80030f8:	69e3      	ldr	r3, [r4, #28]
 80030fa:	f5b3 4f00 	cmp.w	r3, #32768	@ 0x8000
 80030fe:	d029      	beq.n	8003154 <UART_SetConfig+0xb4>
  {
    huart->Instance->BRR = UART_BRR_SAMPLING8(pclk, huart->Init.BaudRate);
  }
  else
  {
    huart->Instance->BRR = UART_BRR_SAMPLING16(pclk, huart->Init.BaudRate);
 8003100:	2100      	movs	r1, #0
 8003102:	1803      	adds	r3, r0, r0
 8003104:	4149      	adcs	r1, r1
 8003106:	181b      	adds	r3, r3, r0
 8003108:	f141 0100 	adc.w	r1, r1, #0
 800310c:	00c9      	lsls	r1, r1, #3
 800310e:	ea41 7153 	orr.w	r1, r1, r3, lsr #29
 8003112:	00db      	lsls	r3, r3, #3
 8003114:	1818      	adds	r0, r3, r0
 8003116:	6863      	ldr	r3, [r4, #4]
 8003118:	ea4f 0283 	mov.w	r2, r3, lsl #2
 800311c:	ea4f 7393 	mov.w	r3, r3, lsr #30
 8003120:	f141 0100 	adc.w	r1, r1, #0
 8003124:	f7fd f8c4 	bl	80002b0 <__aeabi_uldivmod>
 8003128:	4a20      	ldr	r2, [pc, #128]	@ (80031ac <UART_SetConfig+0x10c>)
 800312a:	fba2 3100 	umull	r3, r1, r2, r0
 800312e:	0949      	lsrs	r1, r1, #5
 8003130:	2364      	movs	r3, #100	@ 0x64
 8003132:	fb03 0311 	mls	r3, r3, r1, r0
 8003136:	011b      	lsls	r3, r3, #4
 8003138:	3332      	adds	r3, #50	@ 0x32
 800313a:	fba2 2303 	umull	r2, r3, r2, r3
 800313e:	095b      	lsrs	r3, r3, #5
 8003140:	f003 02f0 	and.w	r2, r3, #240	@ 0xf0
 8003144:	eb02 1201 	add.w	r2, r2, r1, lsl #4
 8003148:	f003 030f 	and.w	r3, r3, #15
 800314c:	6821      	ldr	r1, [r4, #0]
 800314e:	4413      	add	r3, r2
 8003150:	608b      	str	r3, [r1, #8]
  }
}
 8003152:	bd10      	pop	{r4, pc}
    huart->Instance->BRR = UART_BRR_SAMPLING8(pclk, huart->Init.BaudRate);
 8003154:	2300      	movs	r3, #0
 8003156:	1802      	adds	r2, r0, r0
 8003158:	eb43 0103 	adc.w	r1, r3, r3
 800315c:	1812      	adds	r2, r2, r0
 800315e:	f141 0100 	adc.w	r1, r1, #0
 8003162:	00c9      	lsls	r1, r1, #3
 8003164:	ea41 7152 	orr.w	r1, r1, r2, lsr #29
 8003168:	00d2      	lsls	r2, r2, #3
 800316a:	1810      	adds	r0, r2, r0
 800316c:	f141 0100 	adc.w	r1, r1, #0
 8003170:	6862      	ldr	r2, [r4, #4]
 8003172:	1892      	adds	r2, r2, r2
 8003174:	415b      	adcs	r3, r3
 8003176:	f7fd f89b 	bl	80002b0 <__aeabi_uldivmod>
 800317a:	4a0c      	ldr	r2, [pc, #48]	@ (80031ac <UART_SetConfig+0x10c>)
 800317c:	fba2 3100 	umull	r3, r1, r2, r0
 8003180:	0949      	lsrs	r1, r1, #5
 8003182:	2364      	movs	r3, #100	@ 0x64
 8003184:	fb03 0311 	mls	r3, r3, r1, r0
 8003188:	00db      	lsls	r3, r3, #3
 800318a:	3332      	adds	r3, #50	@ 0x32
 800318c:	fba2 2303 	umull	r2, r3, r2, r3
 8003190:	095b      	lsrs	r3, r3, #5
 8003192:	005a      	lsls	r2, r3, #1
 8003194:	f402 72f8 	and.w	r2, r2, #496	@ 0x1f0
 8003198:	eb02 1201 	add.w	r2, r2, r1, lsl #4
 800319c:	f003 0307 	and.w	r3, r3, #7
 80031a0:	6821      	ldr	r1, [r4, #0]
 80031a2:	4413      	add	r3, r2
 80031a4:	608b      	str	r3, [r1, #8]
 80031a6:	e7d4      	b.n	8003152 <UART_SetConfig+0xb2>
 80031a8:	40011000 	.word	0x40011000
 80031ac:	51eb851f 	.word	0x51eb851f

080031b0 <UART_WaitOnFlagUntilTimeout>:
{
 80031b0:	e92d 43f0 	stmdb	sp!, {r4, r5, r6, r7, r8, r9, lr}
 80031b4:	b083      	sub	sp, #12
 80031b6:	4605      	mov	r5, r0
 80031b8:	460e      	mov	r6, r1
 80031ba:	4617      	mov	r7, r2
 80031bc:	4699      	mov	r9, r3
 80031be:	f8dd 8028 	ldr.w	r8, [sp, #40]	@ 0x28
  while ((__HAL_UART_GET_FLAG(huart, Flag) ? SET : RESET) == Status)
 80031c2:	682b      	ldr	r3, [r5, #0]
 80031c4:	681c      	ldr	r4, [r3, #0]
 80031c6:	ea36 0404 	bics.w	r4, r6, r4
 80031ca:	bf0c      	ite	eq
 80031cc:	2401      	moveq	r4, #1
 80031ce:	2400      	movne	r4, #0
 80031d0:	42bc      	cmp	r4, r7
 80031d2:	d128      	bne.n	8003226 <UART_WaitOnFlagUntilTimeout+0x76>
    if (Timeout != HAL_MAX_DELAY)
 80031d4:	f1b8 3fff 	cmp.w	r8, #4294967295
 80031d8:	d0f3      	beq.n	80031c2 <UART_WaitOnFlagUntilTimeout+0x12>
      if (((HAL_GetTick() - Tickstart) > Timeout) || (Timeout == 0U))
 80031da:	f7fe fb3f 	bl	800185c <HAL_GetTick>
 80031de:	eba0 0009 	sub.w	r0, r0, r9
 80031e2:	4540      	cmp	r0, r8
 80031e4:	d823      	bhi.n	800322e <UART_WaitOnFlagUntilTimeout+0x7e>
 80031e6:	f1b8 0f00 	cmp.w	r8, #0
 80031ea:	d022      	beq.n	8003232 <UART_WaitOnFlagUntilTimeout+0x82>
      if ((READ_BIT(huart->Instance->CR1, USART_CR1_RE) != 0U) && (Flag != UART_FLAG_TXE) && (Flag != UART_FLAG_TC))
 80031ec:	682b      	ldr	r3, [r5, #0]
 80031ee:	68da      	ldr	r2, [r3, #12]
 80031f0:	f012 0f04 	tst.w	r2, #4
 80031f4:	d0e5      	beq.n	80031c2 <UART_WaitOnFlagUntilTimeout+0x12>
 80031f6:	2e80      	cmp	r6, #128	@ 0x80
 80031f8:	d0e3      	beq.n	80031c2 <UART_WaitOnFlagUntilTimeout+0x12>
 80031fa:	2e40      	cmp	r6, #64	@ 0x40
 80031fc:	d0e1      	beq.n	80031c2 <UART_WaitOnFlagUntilTimeout+0x12>
        if (__HAL_UART_GET_FLAG(huart, UART_FLAG_ORE) == SET)
 80031fe:	681a      	ldr	r2, [r3, #0]
 8003200:	f012 0f08 	tst.w	r2, #8
 8003204:	d0dd      	beq.n	80031c2 <UART_WaitOnFlagUntilTimeout+0x12>
          __HAL_UART_CLEAR_OREFLAG(huart);
 8003206:	2400      	movs	r4, #0
 8003208:	9401      	str	r4, [sp, #4]
 800320a:	681a      	ldr	r2, [r3, #0]
 800320c:	9201      	str	r2, [sp, #4]
 800320e:	685b      	ldr	r3, [r3, #4]
 8003210:	9301      	str	r3, [sp, #4]
 8003212:	9b01      	ldr	r3, [sp, #4]
          UART_EndRxTransfer(huart);
 8003214:	4628      	mov	r0, r5
 8003216:	f7ff ff15 	bl	8003044 <UART_EndRxTransfer>
          huart->ErrorCode = HAL_UART_ERROR_ORE;
 800321a:	2308      	movs	r3, #8
 800321c:	646b      	str	r3, [r5, #68]	@ 0x44
          __HAL_UNLOCK(huart);
 800321e:	f885 4040 	strb.w	r4, [r5, #64]	@ 0x40
          return HAL_ERROR;
 8003222:	2001      	movs	r0, #1
 8003224:	e000      	b.n	8003228 <UART_WaitOnFlagUntilTimeout+0x78>
  return HAL_OK;
 8003226:	2000      	movs	r0, #0
}
 8003228:	b003      	add	sp, #12
 800322a:	e8bd 83f0 	ldmia.w	sp!, {r4, r5, r6, r7, r8, r9, pc}
        return HAL_TIMEOUT;
 800322e:	2003      	movs	r0, #3
 8003230:	e7fa      	b.n	8003228 <UART_WaitOnFlagUntilTimeout+0x78>
 8003232:	2003      	movs	r0, #3
 8003234:	e7f8      	b.n	8003228 <UART_WaitOnFlagUntilTimeout+0x78>

08003236 <HAL_UART_Init>:
  if (huart == NULL)
 8003236:	b360      	cbz	r0, 8003292 <HAL_UART_Init+0x5c>
{
 8003238:	b510      	push	{r4, lr}
 800323a:	4604      	mov	r4, r0
  if (huart->gState == HAL_UART_STATE_RESET)
 800323c:	f890 3041 	ldrb.w	r3, [r0, #65]	@ 0x41
 8003240:	b313      	cbz	r3, 8003288 <HAL_UART_Init+0x52>
  huart->gState = HAL_UART_STATE_BUSY;
 8003242:	2324      	movs	r3, #36	@ 0x24
 8003244:	f884 3041 	strb.w	r3, [r4, #65]	@ 0x41
  __HAL_UART_DISABLE(huart);
 8003248:	6822      	ldr	r2, [r4, #0]
 800324a:	68d3      	ldr	r3, [r2, #12]
 800324c:	f423 5300 	bic.w	r3, r3, #8192	@ 0x2000
 8003250:	60d3      	str	r3, [r2, #12]
  UART_SetConfig(huart);
 8003252:	4620      	mov	r0, r4
 8003254:	f7ff ff24 	bl	80030a0 <UART_SetConfig>
  CLEAR_BIT(huart->Instance->CR2, (USART_CR2_LINEN | USART_CR2_CLKEN));
 8003258:	6822      	ldr	r2, [r4, #0]
 800325a:	6913      	ldr	r3, [r2, #16]
 800325c:	f423 4390 	bic.w	r3, r3, #18432	@ 0x4800
 8003260:	6113      	str	r3, [r2, #16]
  CLEAR_BIT(huart->Instance->CR3, (USART_CR3_SCEN | USART_CR3_HDSEL | USART_CR3_IREN));
 8003262:	6822      	ldr	r2, [r4, #0]
 8003264:	6953      	ldr	r3, [r2, #20]
 8003266:	f023 032a 	bic.w	r3, r3, #42	@ 0x2a
 800326a:	6153      	str	r3, [r2, #20]
  __HAL_UART_ENABLE(huart);
 800326c:	6822      	ldr	r2, [r4, #0]
 800326e:	68d3      	ldr	r3, [r2, #12]
 8003270:	f443 5300 	orr.w	r3, r3, #8192	@ 0x2000
 8003274:	60d3      	str	r3, [r2, #12]
  huart->ErrorCode = HAL_UART_ERROR_NONE;
 8003276:	2000      	movs	r0, #0
 8003278:	6460      	str	r0, [r4, #68]	@ 0x44
  huart->gState = HAL_UART_STATE_READY;
 800327a:	2320      	movs	r3, #32
 800327c:	f884 3041 	strb.w	r3, [r4, #65]	@ 0x41
  huart->RxState = HAL_UART_STATE_READY;
 8003280:	f884 3042 	strb.w	r3, [r4, #66]	@ 0x42
  huart->RxEventType = HAL_UART_RXEVENT_TC;
 8003284:	6360      	str	r0, [r4, #52]	@ 0x34
}
 8003286:	bd10      	pop	{r4, pc}
    huart->Lock = HAL_UNLOCKED;
 8003288:	f880 3040 	strb.w	r3, [r0, #64]	@ 0x40
    HAL_UART_MspInit(huart);
 800328c:	f7fe f998 	bl	80015c0 <HAL_UART_MspInit>
 8003290:	e7d7      	b.n	8003242 <HAL_UART_Init+0xc>
    return HAL_ERROR;
 8003292:	2001      	movs	r0, #1
}
 8003294:	4770      	bx	lr

08003296 <HAL_UART_Transmit>:
{
 8003296:	e92d 41f0 	stmdb	sp!, {r4, r5, r6, r7, r8, lr}
 800329a:	b082      	sub	sp, #8
 800329c:	461e      	mov	r6, r3
  if (huart->gState == HAL_UART_STATE_READY)
 800329e:	f890 3041 	ldrb.w	r3, [r0, #65]	@ 0x41
 80032a2:	b2db      	uxtb	r3, r3
 80032a4:	2b20      	cmp	r3, #32
 80032a6:	d156      	bne.n	8003356 <HAL_UART_Transmit+0xc0>
 80032a8:	4604      	mov	r4, r0
 80032aa:	460d      	mov	r5, r1
 80032ac:	4690      	mov	r8, r2
    if ((pData == NULL) || (Size == 0U))
 80032ae:	2900      	cmp	r1, #0
 80032b0:	d055      	beq.n	800335e <HAL_UART_Transmit+0xc8>
 80032b2:	b90a      	cbnz	r2, 80032b8 <HAL_UART_Transmit+0x22>
      return  HAL_ERROR;
 80032b4:	2001      	movs	r0, #1
 80032b6:	e04f      	b.n	8003358 <HAL_UART_Transmit+0xc2>
    huart->ErrorCode = HAL_UART_ERROR_NONE;
 80032b8:	2300      	movs	r3, #0
 80032ba:	6443      	str	r3, [r0, #68]	@ 0x44
    huart->gState = HAL_UART_STATE_BUSY_TX;
 80032bc:	2321      	movs	r3, #33	@ 0x21
 80032be:	f880 3041 	strb.w	r3, [r0, #65]	@ 0x41
    tickstart = HAL_GetTick();
 80032c2:	f7fe facb 	bl	800185c <HAL_GetTick>
 80032c6:	4607      	mov	r7, r0
    huart->TxXferSize = Size;
 80032c8:	f8a4 8024 	strh.w	r8, [r4, #36]	@ 0x24
    huart->TxXferCount = Size;
 80032cc:	f8a4 8026 	strh.w	r8, [r4, #38]	@ 0x26
    if ((huart->Init.WordLength == UART_WORDLENGTH_9B) && (huart->Init.Parity == UART_PARITY_NONE))
 80032d0:	68a3      	ldr	r3, [r4, #8]
 80032d2:	f5b3 5f80 	cmp.w	r3, #4096	@ 0x1000
 80032d6:	d002      	beq.n	80032de <HAL_UART_Transmit+0x48>
      pdata16bits = NULL;
 80032d8:	f04f 0800 	mov.w	r8, #0
 80032dc:	e014      	b.n	8003308 <HAL_UART_Transmit+0x72>
    if ((huart->Init.WordLength == UART_WORDLENGTH_9B) && (huart->Init.Parity == UART_PARITY_NONE))
 80032de:	6923      	ldr	r3, [r4, #16]
 80032e0:	b32b      	cbz	r3, 800332e <HAL_UART_Transmit+0x98>
      pdata16bits = NULL;
 80032e2:	f04f 0800 	mov.w	r8, #0
 80032e6:	e00f      	b.n	8003308 <HAL_UART_Transmit+0x72>
        huart->gState = HAL_UART_STATE_READY;
 80032e8:	2320      	movs	r3, #32
 80032ea:	f884 3041 	strb.w	r3, [r4, #65]	@ 0x41
        return HAL_TIMEOUT;
 80032ee:	2003      	movs	r0, #3
 80032f0:	e032      	b.n	8003358 <HAL_UART_Transmit+0xc2>
        huart->Instance->DR = (uint16_t)(*pdata16bits & 0x01FFU);
 80032f2:	f838 3b02 	ldrh.w	r3, [r8], #2
 80032f6:	6822      	ldr	r2, [r4, #0]
 80032f8:	f3c3 0308 	ubfx	r3, r3, #0, #9
 80032fc:	6053      	str	r3, [r2, #4]
      huart->TxXferCount--;
 80032fe:	8ce2      	ldrh	r2, [r4, #38]	@ 0x26
 8003300:	b292      	uxth	r2, r2
 8003302:	3a01      	subs	r2, #1
 8003304:	b292      	uxth	r2, r2
 8003306:	84e2      	strh	r2, [r4, #38]	@ 0x26
    while (huart->TxXferCount > 0U)
 8003308:	8ce3      	ldrh	r3, [r4, #38]	@ 0x26
 800330a:	b29b      	uxth	r3, r3
 800330c:	b193      	cbz	r3, 8003334 <HAL_UART_Transmit+0x9e>
      if (UART_WaitOnFlagUntilTimeout(huart, UART_FLAG_TXE, RESET, tickstart, Timeout) != HAL_OK)
 800330e:	9600      	str	r6, [sp, #0]
 8003310:	463b      	mov	r3, r7
 8003312:	2200      	movs	r2, #0
 8003314:	2180      	movs	r1, #128	@ 0x80
 8003316:	4620      	mov	r0, r4
 8003318:	f7ff ff4a 	bl	80031b0 <UART_WaitOnFlagUntilTimeout>
 800331c:	2800      	cmp	r0, #0
 800331e:	d1e3      	bne.n	80032e8 <HAL_UART_Transmit+0x52>
      if (pdata8bits == NULL)
 8003320:	2d00      	cmp	r5, #0
 8003322:	d0e6      	beq.n	80032f2 <HAL_UART_Transmit+0x5c>
        huart->Instance->DR = (uint8_t)(*pdata8bits & 0xFFU);
 8003324:	f815 2b01 	ldrb.w	r2, [r5], #1
 8003328:	6823      	ldr	r3, [r4, #0]
 800332a:	605a      	str	r2, [r3, #4]
        pdata8bits++;
 800332c:	e7e7      	b.n	80032fe <HAL_UART_Transmit+0x68>
      pdata16bits = (const uint16_t *) pData;
 800332e:	46a8      	mov	r8, r5
      pdata8bits  = NULL;
 8003330:	2500      	movs	r5, #0
 8003332:	e7e9      	b.n	8003308 <HAL_UART_Transmit+0x72>
    if (UART_WaitOnFlagUntilTimeout(huart, UART_FLAG_TC, RESET, tickstart, Timeout) != HAL_OK)
 8003334:	9600      	str	r6, [sp, #0]
 8003336:	463b      	mov	r3, r7
 8003338:	2200      	movs	r2, #0
 800333a:	2140      	movs	r1, #64	@ 0x40
 800333c:	4620      	mov	r0, r4
 800333e:	f7ff ff37 	bl	80031b0 <UART_WaitOnFlagUntilTimeout>
 8003342:	b918      	cbnz	r0, 800334c <HAL_UART_Transmit+0xb6>
    huart->gState = HAL_UART_STATE_READY;
 8003344:	2320      	movs	r3, #32
 8003346:	f884 3041 	strb.w	r3, [r4, #65]	@ 0x41
    return HAL_OK;
 800334a:	e005      	b.n	8003358 <HAL_UART_Transmit+0xc2>
      huart->gState = HAL_UART_STATE_READY;
 800334c:	2320      	movs	r3, #32
 800334e:	f884 3041 	strb.w	r3, [r4, #65]	@ 0x41
      return HAL_TIMEOUT;
 8003352:	2003      	movs	r0, #3
 8003354:	e000      	b.n	8003358 <HAL_UART_Transmit+0xc2>
    return HAL_BUSY;
 8003356:	2002      	movs	r0, #2
}
 8003358:	b002      	add	sp, #8
 800335a:	e8bd 81f0 	ldmia.w	sp!, {r4, r5, r6, r7, r8, pc}
      return  HAL_ERROR;
 800335e:	2001      	movs	r0, #1
 8003360:	e7fa      	b.n	8003358 <HAL_UART_Transmit+0xc2>

08003362 <HAL_UART_RxCpltCallback>:
}
 8003362:	4770      	bx	lr

08003364 <HAL_UART_RxHalfCpltCallback>:
}
 8003364:	4770      	bx	lr

08003366 <HAL_UART_ErrorCallback>:
}
 8003366:	4770      	bx	lr

08003368 <UART_DMAError>:
{
 8003368:	b510      	push	{r4, lr}
  UART_HandleTypeDef *huart = (UART_HandleTypeDef *)((DMA_HandleTypeDef *)hdma)->Parent;
 800336a:	6b84      	ldr	r4, [r0, #56]	@ 0x38
  dmarequest = HAL_IS_BIT_SET(huart->Instance->CR3, USART_CR3_DMAT);
 800336c:	6823      	ldr	r3, [r4, #0]
 800336e:	695a      	ldr	r2, [r3, #20]
  if ((huart->gState == HAL_UART_STATE_BUSY_TX) && dmarequest)
 8003370:	f894 3041 	ldrb.w	r3, [r4, #65]	@ 0x41
 8003374:	b2db      	uxtb	r3, r3
 8003376:	2b21      	cmp	r3, #33	@ 0x21
 8003378:	d010      	beq.n	800339c <UART_DMAError+0x34>
  dmarequest = HAL_IS_BIT_SET(huart->Instance->CR3, USART_CR3_DMAR);
 800337a:	6823      	ldr	r3, [r4, #0]
 800337c:	695a      	ldr	r2, [r3, #20]
 800337e:	f002 0240 	and.w	r2, r2, #64	@ 0x40
  if ((huart->RxState == HAL_UART_STATE_BUSY_RX) && dmarequest)
 8003382:	f894 3042 	ldrb.w	r3, [r4, #66]	@ 0x42
 8003386:	b2db      	uxtb	r3, r3
 8003388:	2b22      	cmp	r3, #34	@ 0x22
 800338a:	d011      	beq.n	80033b0 <UART_DMAError+0x48>
  huart->ErrorCode |= HAL_UART_ERROR_DMA;
 800338c:	6c63      	ldr	r3, [r4, #68]	@ 0x44
 800338e:	f043 0310 	orr.w	r3, r3, #16
 8003392:	6463      	str	r3, [r4, #68]	@ 0x44
  HAL_UART_ErrorCallback(huart);
 8003394:	4620      	mov	r0, r4
 8003396:	f7ff ffe6 	bl	8003366 <HAL_UART_ErrorCallback>
}
 800339a:	bd10      	pop	{r4, pc}
 800339c:	f002 0280 	and.w	r2, r2, #128	@ 0x80
  if ((huart->gState == HAL_UART_STATE_BUSY_TX) && dmarequest)
 80033a0:	2a00      	cmp	r2, #0
 80033a2:	d0ea      	beq.n	800337a <UART_DMAError+0x12>
    huart->TxXferCount = 0x00U;
 80033a4:	2300      	movs	r3, #0
 80033a6:	84e3      	strh	r3, [r4, #38]	@ 0x26
    UART_EndTxTransfer(huart);
 80033a8:	4620      	mov	r0, r4
 80033aa:	f7ff fe3b 	bl	8003024 <UART_EndTxTransfer>
 80033ae:	e7e4      	b.n	800337a <UART_DMAError+0x12>
  if ((huart->RxState == HAL_UART_STATE_BUSY_RX) && dmarequest)
 80033b0:	2a00      	cmp	r2, #0
 80033b2:	d0eb      	beq.n	800338c <UART_DMAError+0x24>
    huart->RxXferCount = 0x00U;
 80033b4:	2300      	movs	r3, #0
 80033b6:	85e3      	strh	r3, [r4, #46]	@ 0x2e
    UART_EndRxTransfer(huart);
 80033b8:	4620      	mov	r0, r4
 80033ba:	f7ff fe43 	bl	8003044 <UART_EndRxTransfer>
 80033be:	e7e5      	b.n	800338c <UART_DMAError+0x24>

080033c0 <HAL_UARTEx_RxEventCallback>:
}
 80033c0:	4770      	bx	lr

080033c2 <UART_DMARxHalfCplt>:
{
 80033c2:	b508      	push	{r3, lr}
  UART_HandleTypeDef *huart = (UART_HandleTypeDef *)((DMA_HandleTypeDef *)hdma)->Parent;
 80033c4:	6b80      	ldr	r0, [r0, #56]	@ 0x38
  huart->RxEventType = HAL_UART_RXEVENT_HT;
 80033c6:	2301      	movs	r3, #1
 80033c8:	6343      	str	r3, [r0, #52]	@ 0x34
  if (huart->ReceptionType == HAL_UART_RECEPTION_TOIDLE)
 80033ca:	6b03      	ldr	r3, [r0, #48]	@ 0x30
 80033cc:	2b01      	cmp	r3, #1
 80033ce:	d002      	beq.n	80033d6 <UART_DMARxHalfCplt+0x14>
    HAL_UART_RxHalfCpltCallback(huart);
 80033d0:	f7ff ffc8 	bl	8003364 <HAL_UART_RxHalfCpltCallback>
}
 80033d4:	bd08      	pop	{r3, pc}
    HAL_UARTEx_RxEventCallback(huart, huart->RxXferSize / 2U);
 80033d6:	8d81      	ldrh	r1, [r0, #44]	@ 0x2c
 80033d8:	0849      	lsrs	r1, r1, #1
 80033da:	f7ff fff1 	bl	80033c0 <HAL_UARTEx_RxEventCallback>
 80033de:	e7f9      	b.n	80033d4 <UART_DMARxHalfCplt+0x12>

080033e0 <UART_DMAReceiveCplt>:
{
 80033e0:	b508      	push	{r3, lr}
 80033e2:	4603      	mov	r3, r0
  UART_HandleTypeDef *huart = (UART_HandleTypeDef *)((DMA_HandleTypeDef *)hdma)->Parent;
 80033e4:	6b80      	ldr	r0, [r0, #56]	@ 0x38
  if ((hdma->Instance->CR & DMA_SxCR_CIRC) == 0U)
 80033e6:	681b      	ldr	r3, [r3, #0]
 80033e8:	681b      	ldr	r3, [r3, #0]
 80033ea:	f413 7f80 	tst.w	r3, #256	@ 0x100
 80033ee:	d12b      	bne.n	8003448 <UART_DMAReceiveCplt+0x68>
    huart->RxXferCount = 0U;
 80033f0:	2300      	movs	r3, #0
 80033f2:	85c3      	strh	r3, [r0, #46]	@ 0x2e
    ATOMIC_CLEAR_BIT(huart->Instance->CR1, USART_CR1_PEIE);
 80033f4:	6802      	ldr	r2, [r0, #0]
   __ASM volatile ("ldrex %0, %1" : "=r" (result) : "Q" (*addr) );
 80033f6:	f102 030c 	add.w	r3, r2, #12
 80033fa:	e853 3f00 	ldrex	r3, [r3]
 80033fe:	f423 7380 	bic.w	r3, r3, #256	@ 0x100
   __ASM volatile ("strex %0, %2, %1" : "=&r" (result), "=Q" (*addr) : "r" (value) );
 8003402:	320c      	adds	r2, #12
 8003404:	e842 3100 	strex	r1, r3, [r2]
 8003408:	2900      	cmp	r1, #0
 800340a:	d1f3      	bne.n	80033f4 <UART_DMAReceiveCplt+0x14>
    ATOMIC_CLEAR_BIT(huart->Instance->CR3, USART_CR3_EIE);
 800340c:	6802      	ldr	r2, [r0, #0]
   __ASM volatile ("ldrex %0, %1" : "=r" (result) : "Q" (*addr) );
 800340e:	f102 0314 	add.w	r3, r2, #20
 8003412:	e853 3f00 	ldrex	r3, [r3]
 8003416:	f023 0301 	bic.w	r3, r3, #1
   __ASM volatile ("strex %0, %2, %1" : "=&r" (result), "=Q" (*addr) : "r" (value) );
 800341a:	3214      	adds	r2, #20
 800341c:	e842 3100 	strex	r1, r3, [r2]
 8003420:	2900      	cmp	r1, #0
 8003422:	d1f3      	bne.n	800340c <UART_DMAReceiveCplt+0x2c>
    ATOMIC_CLEAR_BIT(huart->Instance->CR3, USART_CR3_DMAR);
 8003424:	6802      	ldr	r2, [r0, #0]
   __ASM volatile ("ldrex %0, %1" : "=r" (result) : "Q" (*addr) );
 8003426:	f102 0314 	add.w	r3, r2, #20
 800342a:	e853 3f00 	ldrex	r3, [r3]
 800342e:	f023 0340 	bic.w	r3, r3, #64	@ 0x40
   __ASM volatile ("strex %0, %2, %1" : "=&r" (result), "=Q" (*addr) : "r" (value) );
 8003432:	3214      	adds	r2, #20
 8003434:	e842 3100 	strex	r1, r3, [r2]
 8003438:	2900      	cmp	r1, #0
 800343a:	d1f3      	bne.n	8003424 <UART_DMAReceiveCplt+0x44>
    huart->RxState = HAL_UART_STATE_READY;
 800343c:	2320      	movs	r3, #32
 800343e:	f880 3042 	strb.w	r3, [r0, #66]	@ 0x42
    if (huart->ReceptionType == HAL_UART_RECEPTION_TOIDLE)
 8003442:	6b03      	ldr	r3, [r0, #48]	@ 0x30
 8003444:	2b01      	cmp	r3, #1
 8003446:	d007      	beq.n	8003458 <UART_DMAReceiveCplt+0x78>
  huart->RxEventType = HAL_UART_RXEVENT_TC;
 8003448:	2300      	movs	r3, #0
 800344a:	6343      	str	r3, [r0, #52]	@ 0x34
  if (huart->ReceptionType == HAL_UART_RECEPTION_TOIDLE)
 800344c:	6b03      	ldr	r3, [r0, #48]	@ 0x30
 800344e:	2b01      	cmp	r3, #1
 8003450:	d00f      	beq.n	8003472 <UART_DMAReceiveCplt+0x92>
    HAL_UART_RxCpltCallback(huart);
 8003452:	f7ff ff86 	bl	8003362 <HAL_UART_RxCpltCallback>
}
 8003456:	bd08      	pop	{r3, pc}
      ATOMIC_CLEAR_BIT(huart->Instance->CR1, USART_CR1_IDLEIE);
 8003458:	6802      	ldr	r2, [r0, #0]
   __ASM volatile ("ldrex %0, %1" : "=r" (result) : "Q" (*addr) );
 800345a:	f102 030c 	add.w	r3, r2, #12
 800345e:	e853 3f00 	ldrex	r3, [r3]
 8003462:	f023 0310 	bic.w	r3, r3, #16
   __ASM volatile ("strex %0, %2, %1" : "=&r" (result), "=Q" (*addr) : "r" (value) );
 8003466:	320c      	adds	r2, #12
 8003468:	e842 3100 	strex	r1, r3, [r2]
 800346c:	2900      	cmp	r1, #0
 800346e:	d1f3      	bne.n	8003458 <UART_DMAReceiveCplt+0x78>
 8003470:	e7ea      	b.n	8003448 <UART_DMAReceiveCplt+0x68>
    HAL_UARTEx_RxEventCallback(huart, huart->RxXferSize);
 8003472:	8d81      	ldrh	r1, [r0, #44]	@ 0x2c
 8003474:	f7ff ffa4 	bl	80033c0 <HAL_UARTEx_RxEventCallback>
 8003478:	e7ed      	b.n	8003456 <UART_DMAReceiveCplt+0x76>
	...

0800347c <UART_Start_Receive_DMA>:
{
 800347c:	b530      	push	{r4, r5, lr}
 800347e:	b083      	sub	sp, #12
 8003480:	4604      	mov	r4, r0
 8003482:	4613      	mov	r3, r2
  huart->pRxBuffPtr = pData;
 8003484:	6281      	str	r1, [r0, #40]	@ 0x28
  huart->RxXferSize = Size;
 8003486:	8582      	strh	r2, [r0, #44]	@ 0x2c
  huart->ErrorCode = HAL_UART_ERROR_NONE;
 8003488:	2500      	movs	r5, #0
 800348a:	6445      	str	r5, [r0, #68]	@ 0x44
  huart->RxState = HAL_UART_STATE_BUSY_RX;
 800348c:	2222      	movs	r2, #34	@ 0x22
 800348e:	f880 2042 	strb.w	r2, [r0, #66]	@ 0x42
  huart->hdmarx->XferCpltCallback = UART_DMAReceiveCplt;
 8003492:	6bc2      	ldr	r2, [r0, #60]	@ 0x3c
 8003494:	481f      	ldr	r0, [pc, #124]	@ (8003514 <UART_Start_Receive_DMA+0x98>)
 8003496:	63d0      	str	r0, [r2, #60]	@ 0x3c
  huart->hdmarx->XferHalfCpltCallback = UART_DMARxHalfCplt;
 8003498:	6be2      	ldr	r2, [r4, #60]	@ 0x3c
 800349a:	481f      	ldr	r0, [pc, #124]	@ (8003518 <UART_Start_Receive_DMA+0x9c>)
 800349c:	6410      	str	r0, [r2, #64]	@ 0x40
  huart->hdmarx->XferErrorCallback = UART_DMAError;
 800349e:	6be2      	ldr	r2, [r4, #60]	@ 0x3c
 80034a0:	481e      	ldr	r0, [pc, #120]	@ (800351c <UART_Start_Receive_DMA+0xa0>)
 80034a2:	64d0      	str	r0, [r2, #76]	@ 0x4c
  huart->hdmarx->XferAbortCallback = NULL;
 80034a4:	6be2      	ldr	r2, [r4, #60]	@ 0x3c
 80034a6:	6515      	str	r5, [r2, #80]	@ 0x50
  HAL_DMA_Start_IT(huart->hdmarx, (uint32_t)&huart->Instance->DR, *(uint32_t *)tmp, Size);
 80034a8:	6820      	ldr	r0, [r4, #0]
 80034aa:	460a      	mov	r2, r1
 80034ac:	1d01      	adds	r1, r0, #4
 80034ae:	6be0      	ldr	r0, [r4, #60]	@ 0x3c
 80034b0:	f7fe fe02 	bl	80020b8 <HAL_DMA_Start_IT>
  __HAL_UART_CLEAR_OREFLAG(huart);
 80034b4:	9501      	str	r5, [sp, #4]
 80034b6:	6823      	ldr	r3, [r4, #0]
 80034b8:	681a      	ldr	r2, [r3, #0]
 80034ba:	9201      	str	r2, [sp, #4]
 80034bc:	685b      	ldr	r3, [r3, #4]
 80034be:	9301      	str	r3, [sp, #4]
 80034c0:	9b01      	ldr	r3, [sp, #4]
  if (huart->Init.Parity != UART_PARITY_NONE)
 80034c2:	6923      	ldr	r3, [r4, #16]
 80034c4:	b15b      	cbz	r3, 80034de <UART_Start_Receive_DMA+0x62>
    ATOMIC_SET_BIT(huart->Instance->CR1, USART_CR1_PEIE);
 80034c6:	6822      	ldr	r2, [r4, #0]
   __ASM volatile ("ldrex %0, %1" : "=r" (result) : "Q" (*addr) );
 80034c8:	f102 030c 	add.w	r3, r2, #12
 80034cc:	e853 3f00 	ldrex	r3, [r3]
 80034d0:	f443 7380 	orr.w	r3, r3, #256	@ 0x100
   __ASM volatile ("strex %0, %2, %1" : "=&r" (result), "=Q" (*addr) : "r" (value) );
 80034d4:	320c      	adds	r2, #12
 80034d6:	e842 3100 	strex	r1, r3, [r2]
 80034da:	2900      	cmp	r1, #0
 80034dc:	d1f3      	bne.n	80034c6 <UART_Start_Receive_DMA+0x4a>
  ATOMIC_SET_BIT(huart->Instance->CR3, USART_CR3_EIE);
 80034de:	6822      	ldr	r2, [r4, #0]
   __ASM volatile ("ldrex %0, %1" : "=r" (result) : "Q" (*addr) );
 80034e0:	f102 0314 	add.w	r3, r2, #20
 80034e4:	e853 3f00 	ldrex	r3, [r3]
 80034e8:	f043 0301 	orr.w	r3, r3, #1
   __ASM volatile ("strex %0, %2, %1" : "=&r" (result), "=Q" (*addr) : "r" (value) );
 80034ec:	3214      	adds	r2, #20
 80034ee:	e842 3100 	strex	r1, r3, [r2]
 80034f2:	2900      	cmp	r1, #0
 80034f4:	d1f3      	bne.n	80034de <UART_Start_Receive_DMA+0x62>
  ATOMIC_SET_BIT(huart->Instance->CR3, USART_CR3_DMAR);
 80034f6:	6822      	ldr	r2, [r4, #0]
   __ASM volatile ("ldrex %0, %1" : "=r" (result) : "Q" (*addr) );
 80034f8:	f102 0314 	add.w	r3, r2, #20
 80034fc:	e853 3f00 	ldrex	r3, [r3]
 8003500:	f043 0340 	orr.w	r3, r3, #64	@ 0x40
   __ASM volatile ("strex %0, %2, %1" : "=&r" (result), "=Q" (*addr) : "r" (value) );
 8003504:	3214      	adds	r2, #20
 8003506:	e842 3100 	strex	r1, r3, [r2]
 800350a:	2900      	cmp	r1, #0
 800350c:	d1f3      	bne.n	80034f6 <UART_Start_Receive_DMA+0x7a>
}
 800350e:	2000      	movs	r0, #0
 8003510:	b003      	add	sp, #12
 8003512:	bd30      	pop	{r4, r5, pc}
 8003514:	080033e1 	.word	0x080033e1
 8003518:	080033c3 	.word	0x080033c3
 800351c:	08003369 	.word	0x08003369

08003520 <HAL_UART_Receive_DMA>:
{
 8003520:	b508      	push	{r3, lr}
  if (huart->RxState == HAL_UART_STATE_READY)
 8003522:	f890 3042 	ldrb.w	r3, [r0, #66]	@ 0x42
 8003526:	b2db      	uxtb	r3, r3
 8003528:	2b20      	cmp	r3, #32
 800352a:	d108      	bne.n	800353e <HAL_UART_Receive_DMA+0x1e>
    if ((pData == NULL) || (Size == 0U))
 800352c:	b149      	cbz	r1, 8003542 <HAL_UART_Receive_DMA+0x22>
 800352e:	b90a      	cbnz	r2, 8003534 <HAL_UART_Receive_DMA+0x14>
      return HAL_ERROR;
 8003530:	2001      	movs	r0, #1
}
 8003532:	bd08      	pop	{r3, pc}
    huart->ReceptionType = HAL_UART_RECEPTION_STANDARD;
 8003534:	2300      	movs	r3, #0
 8003536:	6303      	str	r3, [r0, #48]	@ 0x30
    return (UART_Start_Receive_DMA(huart, pData, Size));
 8003538:	f7ff ffa0 	bl	800347c <UART_Start_Receive_DMA>
 800353c:	e7f9      	b.n	8003532 <HAL_UART_Receive_DMA+0x12>
    return HAL_BUSY;
 800353e:	2002      	movs	r0, #2
 8003540:	e7f7      	b.n	8003532 <HAL_UART_Receive_DMA+0x12>
      return HAL_ERROR;
 8003542:	2001      	movs	r0, #1
 8003544:	e7f5      	b.n	8003532 <HAL_UART_Receive_DMA+0x12>

08003546 <FMC_SDRAM_Init>:
  * @param  Device Pointer to SDRAM device instance
  * @param  Init Pointer to SDRAM Initialization structure
  * @retval HAL status
  */
HAL_StatusTypeDef FMC_SDRAM_Init(FMC_SDRAM_TypeDef *Device, FMC_SDRAM_InitTypeDef *Init)
{
 8003546:	b410      	push	{r4}
  assert_param(IS_FMC_SDCLOCK_PERIOD(Init->SDClockPeriod));
  assert_param(IS_FMC_READ_BURST(Init->ReadBurst));
  assert_param(IS_FMC_READPIPE_DELAY(Init->ReadPipeDelay));

  /* Set SDRAM bank configuration parameters */
  if (Init->SDBank == FMC_SDRAM_BANK1)
 8003548:	680b      	ldr	r3, [r1, #0]
 800354a:	b9db      	cbnz	r3, 8003584 <FMC_SDRAM_Init+0x3e>
  {
    MODIFY_REG(Device->SDCR[FMC_SDRAM_BANK1],
 800354c:	6802      	ldr	r2, [r0, #0]
 800354e:	f422 42ff 	bic.w	r2, r2, #32640	@ 0x7f80
 8003552:	f022 027f 	bic.w	r2, r2, #127	@ 0x7f
 8003556:	684b      	ldr	r3, [r1, #4]
 8003558:	688c      	ldr	r4, [r1, #8]
 800355a:	4323      	orrs	r3, r4
 800355c:	68cc      	ldr	r4, [r1, #12]
 800355e:	4323      	orrs	r3, r4
 8003560:	690c      	ldr	r4, [r1, #16]
 8003562:	4323      	orrs	r3, r4
 8003564:	694c      	ldr	r4, [r1, #20]
 8003566:	4323      	orrs	r3, r4
 8003568:	698c      	ldr	r4, [r1, #24]
 800356a:	4323      	orrs	r3, r4
 800356c:	69cc      	ldr	r4, [r1, #28]
 800356e:	4323      	orrs	r3, r4
 8003570:	6a0c      	ldr	r4, [r1, #32]
 8003572:	4323      	orrs	r3, r4
 8003574:	6a49      	ldr	r1, [r1, #36]	@ 0x24
 8003576:	430b      	orrs	r3, r1
 8003578:	431a      	orrs	r2, r3
 800357a:	6002      	str	r2, [r0, #0]
                Init->CASLatency         |
                Init->WriteProtection));
  }

  return HAL_OK;
}
 800357c:	2000      	movs	r0, #0
 800357e:	f85d 4b04 	ldr.w	r4, [sp], #4
 8003582:	4770      	bx	lr
    MODIFY_REG(Device->SDCR[FMC_SDRAM_BANK1],
 8003584:	6803      	ldr	r3, [r0, #0]
 8003586:	f423 43f8 	bic.w	r3, r3, #31744	@ 0x7c00
 800358a:	69ca      	ldr	r2, [r1, #28]
 800358c:	6a0c      	ldr	r4, [r1, #32]
 800358e:	4322      	orrs	r2, r4
 8003590:	6a4c      	ldr	r4, [r1, #36]	@ 0x24
 8003592:	4322      	orrs	r2, r4
 8003594:	4313      	orrs	r3, r2
 8003596:	6003      	str	r3, [r0, #0]
    MODIFY_REG(Device->SDCR[FMC_SDRAM_BANK2],
 8003598:	6842      	ldr	r2, [r0, #4]
 800359a:	f422 42ff 	bic.w	r2, r2, #32640	@ 0x7f80
 800359e:	f022 027f 	bic.w	r2, r2, #127	@ 0x7f
 80035a2:	684b      	ldr	r3, [r1, #4]
 80035a4:	688c      	ldr	r4, [r1, #8]
 80035a6:	4323      	orrs	r3, r4
 80035a8:	68cc      	ldr	r4, [r1, #12]
 80035aa:	4323      	orrs	r3, r4
 80035ac:	690c      	ldr	r4, [r1, #16]
 80035ae:	4323      	orrs	r3, r4
 80035b0:	694c      	ldr	r4, [r1, #20]
 80035b2:	4323      	orrs	r3, r4
 80035b4:	6989      	ldr	r1, [r1, #24]
 80035b6:	430b      	orrs	r3, r1
 80035b8:	431a      	orrs	r2, r3
 80035ba:	6042      	str	r2, [r0, #4]
 80035bc:	e7de      	b.n	800357c <FMC_SDRAM_Init+0x36>

080035be <FMC_SDRAM_Timing_Init>:
  * @param  Bank SDRAM bank number
  * @retval HAL status
  */
HAL_StatusTypeDef FMC_SDRAM_Timing_Init(FMC_SDRAM_TypeDef *Device,
                                        FMC_SDRAM_TimingTypeDef *Timing, uint32_t Bank)
{
 80035be:	b410      	push	{r4}
  assert_param(IS_FMC_RP_DELAY(Timing->RPDelay));
  assert_param(IS_FMC_RCD_DELAY(Timing->RCDDelay));
  assert_param(IS_FMC_SDRAM_BANK(Bank));

  /* Set SDRAM device timing parameters */
  if (Bank == FMC_SDRAM_BANK1)
 80035c0:	bb3a      	cbnz	r2, 8003612 <FMC_SDRAM_Timing_Init+0x54>
  {
    MODIFY_REG(Device->SDTR[FMC_SDRAM_BANK1],
 80035c2:	6882      	ldr	r2, [r0, #8]
 80035c4:	f002 4270 	and.w	r2, r2, #4026531840	@ 0xf0000000
 80035c8:	680b      	ldr	r3, [r1, #0]
 80035ca:	3b01      	subs	r3, #1
 80035cc:	684c      	ldr	r4, [r1, #4]
 80035ce:	f104 3cff 	add.w	ip, r4, #4294967295
 80035d2:	ea43 130c 	orr.w	r3, r3, ip, lsl #4
 80035d6:	688c      	ldr	r4, [r1, #8]
 80035d8:	f104 3cff 	add.w	ip, r4, #4294967295
 80035dc:	ea43 230c 	orr.w	r3, r3, ip, lsl #8
 80035e0:	68cc      	ldr	r4, [r1, #12]
 80035e2:	f104 3cff 	add.w	ip, r4, #4294967295
 80035e6:	ea43 330c 	orr.w	r3, r3, ip, lsl #12
 80035ea:	690c      	ldr	r4, [r1, #16]
 80035ec:	f104 3cff 	add.w	ip, r4, #4294967295
 80035f0:	ea43 430c 	orr.w	r3, r3, ip, lsl #16
 80035f4:	694c      	ldr	r4, [r1, #20]
 80035f6:	f104 3cff 	add.w	ip, r4, #4294967295
 80035fa:	ea43 530c 	orr.w	r3, r3, ip, lsl #20
 80035fe:	6989      	ldr	r1, [r1, #24]
 8003600:	3901      	subs	r1, #1
 8003602:	ea43 6301 	orr.w	r3, r3, r1, lsl #24
 8003606:	4313      	orrs	r3, r2
 8003608:	6083      	str	r3, [r0, #8]
                (((Timing->WriteRecoveryTime) - 1U)    << FMC_SDTR1_TWR_Pos)  |
                (((Timing->RCDDelay) - 1U)             << FMC_SDTR1_TRCD_Pos)));
  }

  return HAL_OK;
}
 800360a:	2000      	movs	r0, #0
 800360c:	f85d 4b04 	ldr.w	r4, [sp], #4
 8003610:	4770      	bx	lr
    MODIFY_REG(Device->SDTR[FMC_SDRAM_BANK1],
 8003612:	6883      	ldr	r3, [r0, #8]
 8003614:	f423 0370 	bic.w	r3, r3, #15728640	@ 0xf00000
 8003618:	f423 4370 	bic.w	r3, r3, #61440	@ 0xf000
 800361c:	68ca      	ldr	r2, [r1, #12]
 800361e:	f102 3cff 	add.w	ip, r2, #4294967295
 8003622:	694a      	ldr	r2, [r1, #20]
 8003624:	3a01      	subs	r2, #1
 8003626:	0512      	lsls	r2, r2, #20
 8003628:	ea42 320c 	orr.w	r2, r2, ip, lsl #12
 800362c:	4313      	orrs	r3, r2
 800362e:	6083      	str	r3, [r0, #8]
    MODIFY_REG(Device->SDTR[FMC_SDRAM_BANK2],
 8003630:	68c2      	ldr	r2, [r0, #12]
 8003632:	f002 4270 	and.w	r2, r2, #4026531840	@ 0xf0000000
 8003636:	680b      	ldr	r3, [r1, #0]
 8003638:	3b01      	subs	r3, #1
 800363a:	684c      	ldr	r4, [r1, #4]
 800363c:	f104 3cff 	add.w	ip, r4, #4294967295
 8003640:	ea43 130c 	orr.w	r3, r3, ip, lsl #4
 8003644:	688c      	ldr	r4, [r1, #8]
 8003646:	f104 3cff 	add.w	ip, r4, #4294967295
 800364a:	ea43 230c 	orr.w	r3, r3, ip, lsl #8
 800364e:	690c      	ldr	r4, [r1, #16]
 8003650:	f104 3cff 	add.w	ip, r4, #4294967295
 8003654:	ea43 430c 	orr.w	r3, r3, ip, lsl #16
 8003658:	6989      	ldr	r1, [r1, #24]
 800365a:	3901      	subs	r1, #1
 800365c:	ea43 6301 	orr.w	r3, r3, r1, lsl #24
 8003660:	4313      	orrs	r3, r2
 8003662:	60c3      	str	r3, [r0, #12]
 8003664:	e7d1      	b.n	800360a <FMC_SDRAM_Timing_Init+0x4c>
	...

08003668 <LL_SetSystemCoreClock>:
  * @retval None
  */
void LL_SetSystemCoreClock(uint32_t HCLKFrequency)
{
  /* HCLK clock frequency */
  SystemCoreClock = HCLKFrequency;
 8003668:	4b01      	ldr	r3, [pc, #4]	@ (8003670 <LL_SetSystemCoreClock+0x8>)
 800366a:	6018      	str	r0, [r3, #0]
}
 800366c:	4770      	bx	lr
 800366e:	bf00      	nop
 8003670:	20000000 	.word	0x20000000

08003674 <_strtoul_l.constprop.0>:
 8003674:	e92d 43f0 	stmdb	sp!, {r4, r5, r6, r7, r8, r9, lr}
 8003678:	4e34      	ldr	r6, [pc, #208]	@ (800374c <_strtoul_l.constprop.0+0xd8>)
 800367a:	4686      	mov	lr, r0
 800367c:	460d      	mov	r5, r1
 800367e:	4628      	mov	r0, r5
 8003680:	f815 4b01 	ldrb.w	r4, [r5], #1
 8003684:	5d37      	ldrb	r7, [r6, r4]
 8003686:	f017 0708 	ands.w	r7, r7, #8
 800368a:	d1f8      	bne.n	800367e <_strtoul_l.constprop.0+0xa>
 800368c:	2c2d      	cmp	r4, #45	@ 0x2d
 800368e:	d12f      	bne.n	80036f0 <_strtoul_l.constprop.0+0x7c>
 8003690:	782c      	ldrb	r4, [r5, #0]
 8003692:	2701      	movs	r7, #1
 8003694:	1c85      	adds	r5, r0, #2
 8003696:	f033 0010 	bics.w	r0, r3, #16
 800369a:	d109      	bne.n	80036b0 <_strtoul_l.constprop.0+0x3c>
 800369c:	2c30      	cmp	r4, #48	@ 0x30
 800369e:	d12c      	bne.n	80036fa <_strtoul_l.constprop.0+0x86>
 80036a0:	7828      	ldrb	r0, [r5, #0]
 80036a2:	f000 00df 	and.w	r0, r0, #223	@ 0xdf
 80036a6:	2858      	cmp	r0, #88	@ 0x58
 80036a8:	d127      	bne.n	80036fa <_strtoul_l.constprop.0+0x86>
 80036aa:	786c      	ldrb	r4, [r5, #1]
 80036ac:	2310      	movs	r3, #16
 80036ae:	3502      	adds	r5, #2
 80036b0:	f04f 38ff 	mov.w	r8, #4294967295
 80036b4:	2600      	movs	r6, #0
 80036b6:	fbb8 f8f3 	udiv	r8, r8, r3
 80036ba:	fb03 f908 	mul.w	r9, r3, r8
 80036be:	ea6f 0909 	mvn.w	r9, r9
 80036c2:	4630      	mov	r0, r6
 80036c4:	f1a4 0c30 	sub.w	ip, r4, #48	@ 0x30
 80036c8:	f1bc 0f09 	cmp.w	ip, #9
 80036cc:	d81c      	bhi.n	8003708 <_strtoul_l.constprop.0+0x94>
 80036ce:	4664      	mov	r4, ip
 80036d0:	42a3      	cmp	r3, r4
 80036d2:	dd2a      	ble.n	800372a <_strtoul_l.constprop.0+0xb6>
 80036d4:	f1b6 3fff 	cmp.w	r6, #4294967295
 80036d8:	d007      	beq.n	80036ea <_strtoul_l.constprop.0+0x76>
 80036da:	4580      	cmp	r8, r0
 80036dc:	d322      	bcc.n	8003724 <_strtoul_l.constprop.0+0xb0>
 80036de:	d101      	bne.n	80036e4 <_strtoul_l.constprop.0+0x70>
 80036e0:	45a1      	cmp	r9, r4
 80036e2:	db1f      	blt.n	8003724 <_strtoul_l.constprop.0+0xb0>
 80036e4:	fb00 4003 	mla	r0, r0, r3, r4
 80036e8:	2601      	movs	r6, #1
 80036ea:	f815 4b01 	ldrb.w	r4, [r5], #1
 80036ee:	e7e9      	b.n	80036c4 <_strtoul_l.constprop.0+0x50>
 80036f0:	2c2b      	cmp	r4, #43	@ 0x2b
 80036f2:	bf04      	itt	eq
 80036f4:	782c      	ldrbeq	r4, [r5, #0]
 80036f6:	1c85      	addeq	r5, r0, #2
 80036f8:	e7cd      	b.n	8003696 <_strtoul_l.constprop.0+0x22>
 80036fa:	2b00      	cmp	r3, #0
 80036fc:	d1d8      	bne.n	80036b0 <_strtoul_l.constprop.0+0x3c>
 80036fe:	2c30      	cmp	r4, #48	@ 0x30
 8003700:	bf0c      	ite	eq
 8003702:	2308      	moveq	r3, #8
 8003704:	230a      	movne	r3, #10
 8003706:	e7d3      	b.n	80036b0 <_strtoul_l.constprop.0+0x3c>
 8003708:	f1a4 0c41 	sub.w	ip, r4, #65	@ 0x41
 800370c:	f1bc 0f19 	cmp.w	ip, #25
 8003710:	d801      	bhi.n	8003716 <_strtoul_l.constprop.0+0xa2>
 8003712:	3c37      	subs	r4, #55	@ 0x37
 8003714:	e7dc      	b.n	80036d0 <_strtoul_l.constprop.0+0x5c>
 8003716:	f1a4 0c61 	sub.w	ip, r4, #97	@ 0x61
 800371a:	f1bc 0f19 	cmp.w	ip, #25
 800371e:	d804      	bhi.n	800372a <_strtoul_l.constprop.0+0xb6>
 8003720:	3c57      	subs	r4, #87	@ 0x57
 8003722:	e7d5      	b.n	80036d0 <_strtoul_l.constprop.0+0x5c>
 8003724:	f04f 36ff 	mov.w	r6, #4294967295
 8003728:	e7df      	b.n	80036ea <_strtoul_l.constprop.0+0x76>
 800372a:	1c73      	adds	r3, r6, #1
 800372c:	d106      	bne.n	800373c <_strtoul_l.constprop.0+0xc8>
 800372e:	2322      	movs	r3, #34	@ 0x22
 8003730:	f8ce 3000 	str.w	r3, [lr]
 8003734:	4630      	mov	r0, r6
 8003736:	b932      	cbnz	r2, 8003746 <_strtoul_l.constprop.0+0xd2>
 8003738:	e8bd 83f0 	ldmia.w	sp!, {r4, r5, r6, r7, r8, r9, pc}
 800373c:	b107      	cbz	r7, 8003740 <_strtoul_l.constprop.0+0xcc>
 800373e:	4240      	negs	r0, r0
 8003740:	2a00      	cmp	r2, #0
 8003742:	d0f9      	beq.n	8003738 <_strtoul_l.constprop.0+0xc4>
 8003744:	b106      	cbz	r6, 8003748 <_strtoul_l.constprop.0+0xd4>
 8003746:	1e69      	subs	r1, r5, #1
 8003748:	6011      	str	r1, [r2, #0]
 800374a:	e7f5      	b.n	8003738 <_strtoul_l.constprop.0+0xc4>
 800374c:	08004241 	.word	0x08004241

08003750 <strtoul>:
 8003750:	4613      	mov	r3, r2
 8003752:	460a      	mov	r2, r1
 8003754:	4601      	mov	r1, r0
 8003756:	4802      	ldr	r0, [pc, #8]	@ (8003760 <strtoul+0x10>)
 8003758:	6800      	ldr	r0, [r0, #0]
 800375a:	f7ff bf8b 	b.w	8003674 <_strtoul_l.constprop.0>
 800375e:	bf00      	nop
 8003760:	2000000c 	.word	0x2000000c

08003764 <_vsniprintf_r>:
 8003764:	b530      	push	{r4, r5, lr}
 8003766:	4614      	mov	r4, r2
 8003768:	2c00      	cmp	r4, #0
 800376a:	b09b      	sub	sp, #108	@ 0x6c
 800376c:	4605      	mov	r5, r0
 800376e:	461a      	mov	r2, r3
 8003770:	da05      	bge.n	800377e <_vsniprintf_r+0x1a>
 8003772:	238b      	movs	r3, #139	@ 0x8b
 8003774:	6003      	str	r3, [r0, #0]
 8003776:	f04f 30ff 	mov.w	r0, #4294967295
 800377a:	b01b      	add	sp, #108	@ 0x6c
 800377c:	bd30      	pop	{r4, r5, pc}
 800377e:	f44f 7302 	mov.w	r3, #520	@ 0x208
 8003782:	f8ad 300c 	strh.w	r3, [sp, #12]
 8003786:	bf14      	ite	ne
 8003788:	f104 33ff 	addne.w	r3, r4, #4294967295
 800378c:	4623      	moveq	r3, r4
 800378e:	9302      	str	r3, [sp, #8]
 8003790:	9305      	str	r3, [sp, #20]
 8003792:	f64f 73ff 	movw	r3, #65535	@ 0xffff
 8003796:	9100      	str	r1, [sp, #0]
 8003798:	9104      	str	r1, [sp, #16]
 800379a:	f8ad 300e 	strh.w	r3, [sp, #14]
 800379e:	4669      	mov	r1, sp
 80037a0:	9b1e      	ldr	r3, [sp, #120]	@ 0x78
 80037a2:	f000 f9df 	bl	8003b64 <_svfiprintf_r>
 80037a6:	1c43      	adds	r3, r0, #1
 80037a8:	bfbc      	itt	lt
 80037aa:	238b      	movlt	r3, #139	@ 0x8b
 80037ac:	602b      	strlt	r3, [r5, #0]
 80037ae:	2c00      	cmp	r4, #0
 80037b0:	d0e3      	beq.n	800377a <_vsniprintf_r+0x16>
 80037b2:	9b00      	ldr	r3, [sp, #0]
 80037b4:	2200      	movs	r2, #0
 80037b6:	701a      	strb	r2, [r3, #0]
 80037b8:	e7df      	b.n	800377a <_vsniprintf_r+0x16>
	...

080037bc <vsniprintf>:
 80037bc:	b507      	push	{r0, r1, r2, lr}
 80037be:	9300      	str	r3, [sp, #0]
 80037c0:	4613      	mov	r3, r2
 80037c2:	460a      	mov	r2, r1
 80037c4:	4601      	mov	r1, r0
 80037c6:	4803      	ldr	r0, [pc, #12]	@ (80037d4 <vsniprintf+0x18>)
 80037c8:	6800      	ldr	r0, [r0, #0]
 80037ca:	f7ff ffcb 	bl	8003764 <_vsniprintf_r>
 80037ce:	b003      	add	sp, #12
 80037d0:	f85d fb04 	ldr.w	pc, [sp], #4
 80037d4:	2000000c 	.word	0x2000000c

080037d8 <memset>:
 80037d8:	4402      	add	r2, r0
 80037da:	4603      	mov	r3, r0
 80037dc:	4293      	cmp	r3, r2
 80037de:	d100      	bne.n	80037e2 <memset+0xa>
 80037e0:	4770      	bx	lr
 80037e2:	f803 1b01 	strb.w	r1, [r3], #1
 80037e6:	e7f9      	b.n	80037dc <memset+0x4>

080037e8 <strncpy>:
 80037e8:	b510      	push	{r4, lr}
 80037ea:	3901      	subs	r1, #1
 80037ec:	4603      	mov	r3, r0
 80037ee:	b132      	cbz	r2, 80037fe <strncpy+0x16>
 80037f0:	f811 4f01 	ldrb.w	r4, [r1, #1]!
 80037f4:	f803 4b01 	strb.w	r4, [r3], #1
 80037f8:	3a01      	subs	r2, #1
 80037fa:	2c00      	cmp	r4, #0
 80037fc:	d1f7      	bne.n	80037ee <strncpy+0x6>
 80037fe:	441a      	add	r2, r3
 8003800:	2100      	movs	r1, #0
 8003802:	4293      	cmp	r3, r2
 8003804:	d100      	bne.n	8003808 <strncpy+0x20>
 8003806:	bd10      	pop	{r4, pc}
 8003808:	f803 1b01 	strb.w	r1, [r3], #1
 800380c:	e7f9      	b.n	8003802 <strncpy+0x1a>

0800380e <__strtok_r>:
 800380e:	b5f0      	push	{r4, r5, r6, r7, lr}
 8003810:	4604      	mov	r4, r0
 8003812:	b908      	cbnz	r0, 8003818 <__strtok_r+0xa>
 8003814:	6814      	ldr	r4, [r2, #0]
 8003816:	b144      	cbz	r4, 800382a <__strtok_r+0x1c>
 8003818:	4620      	mov	r0, r4
 800381a:	f814 5b01 	ldrb.w	r5, [r4], #1
 800381e:	460f      	mov	r7, r1
 8003820:	f817 6b01 	ldrb.w	r6, [r7], #1
 8003824:	b91e      	cbnz	r6, 800382e <__strtok_r+0x20>
 8003826:	b965      	cbnz	r5, 8003842 <__strtok_r+0x34>
 8003828:	6015      	str	r5, [r2, #0]
 800382a:	2000      	movs	r0, #0
 800382c:	e005      	b.n	800383a <__strtok_r+0x2c>
 800382e:	42b5      	cmp	r5, r6
 8003830:	d1f6      	bne.n	8003820 <__strtok_r+0x12>
 8003832:	2b00      	cmp	r3, #0
 8003834:	d1f0      	bne.n	8003818 <__strtok_r+0xa>
 8003836:	6014      	str	r4, [r2, #0]
 8003838:	7003      	strb	r3, [r0, #0]
 800383a:	bdf0      	pop	{r4, r5, r6, r7, pc}
 800383c:	461c      	mov	r4, r3
 800383e:	e00c      	b.n	800385a <__strtok_r+0x4c>
 8003840:	b915      	cbnz	r5, 8003848 <__strtok_r+0x3a>
 8003842:	f814 3b01 	ldrb.w	r3, [r4], #1
 8003846:	460e      	mov	r6, r1
 8003848:	f816 5b01 	ldrb.w	r5, [r6], #1
 800384c:	42ab      	cmp	r3, r5
 800384e:	d1f7      	bne.n	8003840 <__strtok_r+0x32>
 8003850:	2b00      	cmp	r3, #0
 8003852:	d0f3      	beq.n	800383c <__strtok_r+0x2e>
 8003854:	2300      	movs	r3, #0
 8003856:	f804 3c01 	strb.w	r3, [r4, #-1]
 800385a:	6014      	str	r4, [r2, #0]
 800385c:	e7ed      	b.n	800383a <__strtok_r+0x2c>

0800385e <strtok_r>:
 800385e:	2301      	movs	r3, #1
 8003860:	f7ff bfd5 	b.w	800380e <__strtok_r>

08003864 <__errno>:
 8003864:	4b01      	ldr	r3, [pc, #4]	@ (800386c <__errno+0x8>)
 8003866:	6818      	ldr	r0, [r3, #0]
 8003868:	4770      	bx	lr
 800386a:	bf00      	nop
 800386c:	2000000c 	.word	0x2000000c

08003870 <__libc_init_array>:
 8003870:	b570      	push	{r4, r5, r6, lr}
 8003872:	4d0d      	ldr	r5, [pc, #52]	@ (80038a8 <__libc_init_array+0x38>)
 8003874:	4c0d      	ldr	r4, [pc, #52]	@ (80038ac <__libc_init_array+0x3c>)
 8003876:	1b64      	subs	r4, r4, r5
 8003878:	10a4      	asrs	r4, r4, #2
 800387a:	2600      	movs	r6, #0
 800387c:	42a6      	cmp	r6, r4
 800387e:	d109      	bne.n	8003894 <__libc_init_array+0x24>
 8003880:	4d0b      	ldr	r5, [pc, #44]	@ (80038b0 <__libc_init_array+0x40>)
 8003882:	4c0c      	ldr	r4, [pc, #48]	@ (80038b4 <__libc_init_array+0x44>)
 8003884:	f000 fc66 	bl	8004154 <_init>
 8003888:	1b64      	subs	r4, r4, r5
 800388a:	10a4      	asrs	r4, r4, #2
 800388c:	2600      	movs	r6, #0
 800388e:	42a6      	cmp	r6, r4
 8003890:	d105      	bne.n	800389e <__libc_init_array+0x2e>
 8003892:	bd70      	pop	{r4, r5, r6, pc}
 8003894:	f855 3b04 	ldr.w	r3, [r5], #4
 8003898:	4798      	blx	r3
 800389a:	3601      	adds	r6, #1
 800389c:	e7ee      	b.n	800387c <__libc_init_array+0xc>
 800389e:	f855 3b04 	ldr.w	r3, [r5], #4
 80038a2:	4798      	blx	r3
 80038a4:	3601      	adds	r6, #1
 80038a6:	e7f2      	b.n	800388e <__libc_init_array+0x1e>
 80038a8:	0800437c 	.word	0x0800437c
 80038ac:	0800437c 	.word	0x0800437c
 80038b0:	0800437c 	.word	0x0800437c
 80038b4:	08004380 	.word	0x08004380

080038b8 <__retarget_lock_acquire_recursive>:
 80038b8:	4770      	bx	lr

080038ba <__retarget_lock_release_recursive>:
 80038ba:	4770      	bx	lr

080038bc <_free_r>:
 80038bc:	b538      	push	{r3, r4, r5, lr}
 80038be:	4605      	mov	r5, r0
 80038c0:	2900      	cmp	r1, #0
 80038c2:	d041      	beq.n	8003948 <_free_r+0x8c>
 80038c4:	f851 3c04 	ldr.w	r3, [r1, #-4]
 80038c8:	1f0c      	subs	r4, r1, #4
 80038ca:	2b00      	cmp	r3, #0
 80038cc:	bfb8      	it	lt
 80038ce:	18e4      	addlt	r4, r4, r3
 80038d0:	f000 f8e0 	bl	8003a94 <__malloc_lock>
 80038d4:	4a1d      	ldr	r2, [pc, #116]	@ (800394c <_free_r+0x90>)
 80038d6:	6813      	ldr	r3, [r2, #0]
 80038d8:	b933      	cbnz	r3, 80038e8 <_free_r+0x2c>
 80038da:	6063      	str	r3, [r4, #4]
 80038dc:	6014      	str	r4, [r2, #0]
 80038de:	4628      	mov	r0, r5
 80038e0:	e8bd 4038 	ldmia.w	sp!, {r3, r4, r5, lr}
 80038e4:	f000 b8dc 	b.w	8003aa0 <__malloc_unlock>
 80038e8:	42a3      	cmp	r3, r4
 80038ea:	d908      	bls.n	80038fe <_free_r+0x42>
 80038ec:	6820      	ldr	r0, [r4, #0]
 80038ee:	1821      	adds	r1, r4, r0
 80038f0:	428b      	cmp	r3, r1
 80038f2:	bf01      	itttt	eq
 80038f4:	6819      	ldreq	r1, [r3, #0]
 80038f6:	685b      	ldreq	r3, [r3, #4]
 80038f8:	1809      	addeq	r1, r1, r0
 80038fa:	6021      	streq	r1, [r4, #0]
 80038fc:	e7ed      	b.n	80038da <_free_r+0x1e>
 80038fe:	461a      	mov	r2, r3
 8003900:	685b      	ldr	r3, [r3, #4]
 8003902:	b10b      	cbz	r3, 8003908 <_free_r+0x4c>
 8003904:	42a3      	cmp	r3, r4
 8003906:	d9fa      	bls.n	80038fe <_free_r+0x42>
 8003908:	6811      	ldr	r1, [r2, #0]
 800390a:	1850      	adds	r0, r2, r1
 800390c:	42a0      	cmp	r0, r4
 800390e:	d10b      	bne.n	8003928 <_free_r+0x6c>
 8003910:	6820      	ldr	r0, [r4, #0]
 8003912:	4401      	add	r1, r0
 8003914:	1850      	adds	r0, r2, r1
 8003916:	4283      	cmp	r3, r0
 8003918:	6011      	str	r1, [r2, #0]
 800391a:	d1e0      	bne.n	80038de <_free_r+0x22>
 800391c:	6818      	ldr	r0, [r3, #0]
 800391e:	685b      	ldr	r3, [r3, #4]
 8003920:	6053      	str	r3, [r2, #4]
 8003922:	4408      	add	r0, r1
 8003924:	6010      	str	r0, [r2, #0]
 8003926:	e7da      	b.n	80038de <_free_r+0x22>
 8003928:	d902      	bls.n	8003930 <_free_r+0x74>
 800392a:	230c      	movs	r3, #12
 800392c:	602b      	str	r3, [r5, #0]
 800392e:	e7d6      	b.n	80038de <_free_r+0x22>
 8003930:	6820      	ldr	r0, [r4, #0]
 8003932:	1821      	adds	r1, r4, r0
 8003934:	428b      	cmp	r3, r1
 8003936:	bf04      	itt	eq
 8003938:	6819      	ldreq	r1, [r3, #0]
 800393a:	685b      	ldreq	r3, [r3, #4]
 800393c:	6063      	str	r3, [r4, #4]
 800393e:	bf04      	itt	eq
 8003940:	1809      	addeq	r1, r1, r0
 8003942:	6021      	streq	r1, [r4, #0]
 8003944:	6054      	str	r4, [r2, #4]
 8003946:	e7ca      	b.n	80038de <_free_r+0x22>
 8003948:	bd38      	pop	{r3, r4, r5, pc}
 800394a:	bf00      	nop
 800394c:	2000074c 	.word	0x2000074c

08003950 <sbrk_aligned>:
 8003950:	b570      	push	{r4, r5, r6, lr}
 8003952:	4e0f      	ldr	r6, [pc, #60]	@ (8003990 <sbrk_aligned+0x40>)
 8003954:	460c      	mov	r4, r1
 8003956:	6831      	ldr	r1, [r6, #0]
 8003958:	4605      	mov	r5, r0
 800395a:	b911      	cbnz	r1, 8003962 <sbrk_aligned+0x12>
 800395c:	f000 fba6 	bl	80040ac <_sbrk_r>
 8003960:	6030      	str	r0, [r6, #0]
 8003962:	4621      	mov	r1, r4
 8003964:	4628      	mov	r0, r5
 8003966:	f000 fba1 	bl	80040ac <_sbrk_r>
 800396a:	1c43      	adds	r3, r0, #1
 800396c:	d103      	bne.n	8003976 <sbrk_aligned+0x26>
 800396e:	f04f 34ff 	mov.w	r4, #4294967295
 8003972:	4620      	mov	r0, r4
 8003974:	bd70      	pop	{r4, r5, r6, pc}
 8003976:	1cc4      	adds	r4, r0, #3
 8003978:	f024 0403 	bic.w	r4, r4, #3
 800397c:	42a0      	cmp	r0, r4
 800397e:	d0f8      	beq.n	8003972 <sbrk_aligned+0x22>
 8003980:	1a21      	subs	r1, r4, r0
 8003982:	4628      	mov	r0, r5
 8003984:	f000 fb92 	bl	80040ac <_sbrk_r>
 8003988:	3001      	adds	r0, #1
 800398a:	d1f2      	bne.n	8003972 <sbrk_aligned+0x22>
 800398c:	e7ef      	b.n	800396e <sbrk_aligned+0x1e>
 800398e:	bf00      	nop
 8003990:	20000748 	.word	0x20000748

08003994 <_malloc_r>:
 8003994:	e92d 43f8 	stmdb	sp!, {r3, r4, r5, r6, r7, r8, r9, lr}
 8003998:	1ccd      	adds	r5, r1, #3
 800399a:	f025 0503 	bic.w	r5, r5, #3
 800399e:	3508      	adds	r5, #8
 80039a0:	2d0c      	cmp	r5, #12
 80039a2:	bf38      	it	cc
 80039a4:	250c      	movcc	r5, #12
 80039a6:	2d00      	cmp	r5, #0
 80039a8:	4606      	mov	r6, r0
 80039aa:	db01      	blt.n	80039b0 <_malloc_r+0x1c>
 80039ac:	42a9      	cmp	r1, r5
 80039ae:	d904      	bls.n	80039ba <_malloc_r+0x26>
 80039b0:	230c      	movs	r3, #12
 80039b2:	6033      	str	r3, [r6, #0]
 80039b4:	2000      	movs	r0, #0
 80039b6:	e8bd 83f8 	ldmia.w	sp!, {r3, r4, r5, r6, r7, r8, r9, pc}
 80039ba:	f8df 80d4 	ldr.w	r8, [pc, #212]	@ 8003a90 <_malloc_r+0xfc>
 80039be:	f000 f869 	bl	8003a94 <__malloc_lock>
 80039c2:	f8d8 3000 	ldr.w	r3, [r8]
 80039c6:	461c      	mov	r4, r3
 80039c8:	bb44      	cbnz	r4, 8003a1c <_malloc_r+0x88>
 80039ca:	4629      	mov	r1, r5
 80039cc:	4630      	mov	r0, r6
 80039ce:	f7ff ffbf 	bl	8003950 <sbrk_aligned>
 80039d2:	1c43      	adds	r3, r0, #1
 80039d4:	4604      	mov	r4, r0
 80039d6:	d158      	bne.n	8003a8a <_malloc_r+0xf6>
 80039d8:	f8d8 4000 	ldr.w	r4, [r8]
 80039dc:	4627      	mov	r7, r4
 80039de:	2f00      	cmp	r7, #0
 80039e0:	d143      	bne.n	8003a6a <_malloc_r+0xd6>
 80039e2:	2c00      	cmp	r4, #0
 80039e4:	d04b      	beq.n	8003a7e <_malloc_r+0xea>
 80039e6:	6823      	ldr	r3, [r4, #0]
 80039e8:	4639      	mov	r1, r7
 80039ea:	4630      	mov	r0, r6
 80039ec:	eb04 0903 	add.w	r9, r4, r3
 80039f0:	f000 fb5c 	bl	80040ac <_sbrk_r>
 80039f4:	4581      	cmp	r9, r0
 80039f6:	d142      	bne.n	8003a7e <_malloc_r+0xea>
 80039f8:	6821      	ldr	r1, [r4, #0]
 80039fa:	1a6d      	subs	r5, r5, r1
 80039fc:	4629      	mov	r1, r5
 80039fe:	4630      	mov	r0, r6
 8003a00:	f7ff ffa6 	bl	8003950 <sbrk_aligned>
 8003a04:	3001      	adds	r0, #1
 8003a06:	d03a      	beq.n	8003a7e <_malloc_r+0xea>
 8003a08:	6823      	ldr	r3, [r4, #0]
 8003a0a:	442b      	add	r3, r5
 8003a0c:	6023      	str	r3, [r4, #0]
 8003a0e:	f8d8 3000 	ldr.w	r3, [r8]
 8003a12:	685a      	ldr	r2, [r3, #4]
 8003a14:	bb62      	cbnz	r2, 8003a70 <_malloc_r+0xdc>
 8003a16:	f8c8 7000 	str.w	r7, [r8]
 8003a1a:	e00f      	b.n	8003a3c <_malloc_r+0xa8>
 8003a1c:	6822      	ldr	r2, [r4, #0]
 8003a1e:	1b52      	subs	r2, r2, r5
 8003a20:	d420      	bmi.n	8003a64 <_malloc_r+0xd0>
 8003a22:	2a0b      	cmp	r2, #11
 8003a24:	d917      	bls.n	8003a56 <_malloc_r+0xc2>
 8003a26:	1961      	adds	r1, r4, r5
 8003a28:	42a3      	cmp	r3, r4
 8003a2a:	6025      	str	r5, [r4, #0]
 8003a2c:	bf18      	it	ne
 8003a2e:	6059      	strne	r1, [r3, #4]
 8003a30:	6863      	ldr	r3, [r4, #4]
 8003a32:	bf08      	it	eq
 8003a34:	f8c8 1000 	streq.w	r1, [r8]
 8003a38:	5162      	str	r2, [r4, r5]
 8003a3a:	604b      	str	r3, [r1, #4]
 8003a3c:	4630      	mov	r0, r6
 8003a3e:	f000 f82f 	bl	8003aa0 <__malloc_unlock>
 8003a42:	f104 000b 	add.w	r0, r4, #11
 8003a46:	1d23      	adds	r3, r4, #4
 8003a48:	f020 0007 	bic.w	r0, r0, #7
 8003a4c:	1ac2      	subs	r2, r0, r3
 8003a4e:	bf1c      	itt	ne
 8003a50:	1a1b      	subne	r3, r3, r0
 8003a52:	50a3      	strne	r3, [r4, r2]
 8003a54:	e7af      	b.n	80039b6 <_malloc_r+0x22>
 8003a56:	6862      	ldr	r2, [r4, #4]
 8003a58:	42a3      	cmp	r3, r4
 8003a5a:	bf0c      	ite	eq
 8003a5c:	f8c8 2000 	streq.w	r2, [r8]
 8003a60:	605a      	strne	r2, [r3, #4]
 8003a62:	e7eb      	b.n	8003a3c <_malloc_r+0xa8>
 8003a64:	4623      	mov	r3, r4
 8003a66:	6864      	ldr	r4, [r4, #4]
 8003a68:	e7ae      	b.n	80039c8 <_malloc_r+0x34>
 8003a6a:	463c      	mov	r4, r7
 8003a6c:	687f      	ldr	r7, [r7, #4]
 8003a6e:	e7b6      	b.n	80039de <_malloc_r+0x4a>
 8003a70:	461a      	mov	r2, r3
 8003a72:	685b      	ldr	r3, [r3, #4]
 8003a74:	42a3      	cmp	r3, r4
 8003a76:	d1fb      	bne.n	8003a70 <_malloc_r+0xdc>
 8003a78:	2300      	movs	r3, #0
 8003a7a:	6053      	str	r3, [r2, #4]
 8003a7c:	e7de      	b.n	8003a3c <_malloc_r+0xa8>
 8003a7e:	230c      	movs	r3, #12
 8003a80:	6033      	str	r3, [r6, #0]
 8003a82:	4630      	mov	r0, r6
 8003a84:	f000 f80c 	bl	8003aa0 <__malloc_unlock>
 8003a88:	e794      	b.n	80039b4 <_malloc_r+0x20>
 8003a8a:	6005      	str	r5, [r0, #0]
 8003a8c:	e7d6      	b.n	8003a3c <_malloc_r+0xa8>
 8003a8e:	bf00      	nop
 8003a90:	2000074c 	.word	0x2000074c

08003a94 <__malloc_lock>:
 8003a94:	4801      	ldr	r0, [pc, #4]	@ (8003a9c <__malloc_lock+0x8>)
 8003a96:	f7ff bf0f 	b.w	80038b8 <__retarget_lock_acquire_recursive>
 8003a9a:	bf00      	nop
 8003a9c:	20000744 	.word	0x20000744

08003aa0 <__malloc_unlock>:
 8003aa0:	4801      	ldr	r0, [pc, #4]	@ (8003aa8 <__malloc_unlock+0x8>)
 8003aa2:	f7ff bf0a 	b.w	80038ba <__retarget_lock_release_recursive>
 8003aa6:	bf00      	nop
 8003aa8:	20000744 	.word	0x20000744

08003aac <__ssputs_r>:
 8003aac:	e92d 47f0 	stmdb	sp!, {r4, r5, r6, r7, r8, r9, sl, lr}
 8003ab0:	688e      	ldr	r6, [r1, #8]
 8003ab2:	461f      	mov	r7, r3
 8003ab4:	42be      	cmp	r6, r7
 8003ab6:	680b      	ldr	r3, [r1, #0]
 8003ab8:	4682      	mov	sl, r0
 8003aba:	460c      	mov	r4, r1
 8003abc:	4690      	mov	r8, r2
 8003abe:	d82d      	bhi.n	8003b1c <__ssputs_r+0x70>
 8003ac0:	f9b1 200c 	ldrsh.w	r2, [r1, #12]
 8003ac4:	f412 6f90 	tst.w	r2, #1152	@ 0x480
 8003ac8:	d026      	beq.n	8003b18 <__ssputs_r+0x6c>
 8003aca:	6965      	ldr	r5, [r4, #20]
 8003acc:	6909      	ldr	r1, [r1, #16]
 8003ace:	eb05 0545 	add.w	r5, r5, r5, lsl #1
 8003ad2:	eba3 0901 	sub.w	r9, r3, r1
 8003ad6:	eb05 75d5 	add.w	r5, r5, r5, lsr #31
 8003ada:	1c7b      	adds	r3, r7, #1
 8003adc:	444b      	add	r3, r9
 8003ade:	106d      	asrs	r5, r5, #1
 8003ae0:	429d      	cmp	r5, r3
 8003ae2:	bf38      	it	cc
 8003ae4:	461d      	movcc	r5, r3
 8003ae6:	0553      	lsls	r3, r2, #21
 8003ae8:	d527      	bpl.n	8003b3a <__ssputs_r+0x8e>
 8003aea:	4629      	mov	r1, r5
 8003aec:	f7ff ff52 	bl	8003994 <_malloc_r>
 8003af0:	4606      	mov	r6, r0
 8003af2:	b360      	cbz	r0, 8003b4e <__ssputs_r+0xa2>
 8003af4:	6921      	ldr	r1, [r4, #16]
 8003af6:	464a      	mov	r2, r9
 8003af8:	f000 fae8 	bl	80040cc <memcpy>
 8003afc:	89a3      	ldrh	r3, [r4, #12]
 8003afe:	f423 6390 	bic.w	r3, r3, #1152	@ 0x480
 8003b02:	f043 0380 	orr.w	r3, r3, #128	@ 0x80
 8003b06:	81a3      	strh	r3, [r4, #12]
 8003b08:	6126      	str	r6, [r4, #16]
 8003b0a:	6165      	str	r5, [r4, #20]
 8003b0c:	444e      	add	r6, r9
 8003b0e:	eba5 0509 	sub.w	r5, r5, r9
 8003b12:	6026      	str	r6, [r4, #0]
 8003b14:	60a5      	str	r5, [r4, #8]
 8003b16:	463e      	mov	r6, r7
 8003b18:	42be      	cmp	r6, r7
 8003b1a:	d900      	bls.n	8003b1e <__ssputs_r+0x72>
 8003b1c:	463e      	mov	r6, r7
 8003b1e:	6820      	ldr	r0, [r4, #0]
 8003b20:	4632      	mov	r2, r6
 8003b22:	4641      	mov	r1, r8
 8003b24:	f000 faa8 	bl	8004078 <memmove>
 8003b28:	68a3      	ldr	r3, [r4, #8]
 8003b2a:	1b9b      	subs	r3, r3, r6
 8003b2c:	60a3      	str	r3, [r4, #8]
 8003b2e:	6823      	ldr	r3, [r4, #0]
 8003b30:	4433      	add	r3, r6
 8003b32:	6023      	str	r3, [r4, #0]
 8003b34:	2000      	movs	r0, #0
 8003b36:	e8bd 87f0 	ldmia.w	sp!, {r4, r5, r6, r7, r8, r9, sl, pc}
 8003b3a:	462a      	mov	r2, r5
 8003b3c:	f000 fad4 	bl	80040e8 <_realloc_r>
 8003b40:	4606      	mov	r6, r0
 8003b42:	2800      	cmp	r0, #0
 8003b44:	d1e0      	bne.n	8003b08 <__ssputs_r+0x5c>
 8003b46:	6921      	ldr	r1, [r4, #16]
 8003b48:	4650      	mov	r0, sl
 8003b4a:	f7ff feb7 	bl	80038bc <_free_r>
 8003b4e:	230c      	movs	r3, #12
 8003b50:	f8ca 3000 	str.w	r3, [sl]
 8003b54:	89a3      	ldrh	r3, [r4, #12]
 8003b56:	f043 0340 	orr.w	r3, r3, #64	@ 0x40
 8003b5a:	81a3      	strh	r3, [r4, #12]
 8003b5c:	f04f 30ff 	mov.w	r0, #4294967295
 8003b60:	e7e9      	b.n	8003b36 <__ssputs_r+0x8a>
	...

08003b64 <_svfiprintf_r>:
 8003b64:	e92d 4ff0 	stmdb	sp!, {r4, r5, r6, r7, r8, r9, sl, fp, lr}
 8003b68:	4698      	mov	r8, r3
 8003b6a:	898b      	ldrh	r3, [r1, #12]
 8003b6c:	061b      	lsls	r3, r3, #24
 8003b6e:	b09d      	sub	sp, #116	@ 0x74
 8003b70:	4607      	mov	r7, r0
 8003b72:	460d      	mov	r5, r1
 8003b74:	4614      	mov	r4, r2
 8003b76:	d510      	bpl.n	8003b9a <_svfiprintf_r+0x36>
 8003b78:	690b      	ldr	r3, [r1, #16]
 8003b7a:	b973      	cbnz	r3, 8003b9a <_svfiprintf_r+0x36>
 8003b7c:	2140      	movs	r1, #64	@ 0x40
 8003b7e:	f7ff ff09 	bl	8003994 <_malloc_r>
 8003b82:	6028      	str	r0, [r5, #0]
 8003b84:	6128      	str	r0, [r5, #16]
 8003b86:	b930      	cbnz	r0, 8003b96 <_svfiprintf_r+0x32>
 8003b88:	230c      	movs	r3, #12
 8003b8a:	603b      	str	r3, [r7, #0]
 8003b8c:	f04f 30ff 	mov.w	r0, #4294967295
 8003b90:	b01d      	add	sp, #116	@ 0x74
 8003b92:	e8bd 8ff0 	ldmia.w	sp!, {r4, r5, r6, r7, r8, r9, sl, fp, pc}
 8003b96:	2340      	movs	r3, #64	@ 0x40
 8003b98:	616b      	str	r3, [r5, #20]
 8003b9a:	2300      	movs	r3, #0
 8003b9c:	9309      	str	r3, [sp, #36]	@ 0x24
 8003b9e:	2320      	movs	r3, #32
 8003ba0:	f88d 3029 	strb.w	r3, [sp, #41]	@ 0x29
 8003ba4:	f8cd 800c 	str.w	r8, [sp, #12]
 8003ba8:	2330      	movs	r3, #48	@ 0x30
 8003baa:	f8df 819c 	ldr.w	r8, [pc, #412]	@ 8003d48 <_svfiprintf_r+0x1e4>
 8003bae:	f88d 302a 	strb.w	r3, [sp, #42]	@ 0x2a
 8003bb2:	f04f 0901 	mov.w	r9, #1
 8003bb6:	4623      	mov	r3, r4
 8003bb8:	469a      	mov	sl, r3
 8003bba:	f813 2b01 	ldrb.w	r2, [r3], #1
 8003bbe:	b10a      	cbz	r2, 8003bc4 <_svfiprintf_r+0x60>
 8003bc0:	2a25      	cmp	r2, #37	@ 0x25
 8003bc2:	d1f9      	bne.n	8003bb8 <_svfiprintf_r+0x54>
 8003bc4:	ebba 0b04 	subs.w	fp, sl, r4
 8003bc8:	d00b      	beq.n	8003be2 <_svfiprintf_r+0x7e>
 8003bca:	465b      	mov	r3, fp
 8003bcc:	4622      	mov	r2, r4
 8003bce:	4629      	mov	r1, r5
 8003bd0:	4638      	mov	r0, r7
 8003bd2:	f7ff ff6b 	bl	8003aac <__ssputs_r>
 8003bd6:	3001      	adds	r0, #1
 8003bd8:	f000 80a7 	beq.w	8003d2a <_svfiprintf_r+0x1c6>
 8003bdc:	9a09      	ldr	r2, [sp, #36]	@ 0x24
 8003bde:	445a      	add	r2, fp
 8003be0:	9209      	str	r2, [sp, #36]	@ 0x24
 8003be2:	f89a 3000 	ldrb.w	r3, [sl]
 8003be6:	2b00      	cmp	r3, #0
 8003be8:	f000 809f 	beq.w	8003d2a <_svfiprintf_r+0x1c6>
 8003bec:	2300      	movs	r3, #0
 8003bee:	f04f 32ff 	mov.w	r2, #4294967295
 8003bf2:	e9cd 2305 	strd	r2, r3, [sp, #20]
 8003bf6:	f10a 0a01 	add.w	sl, sl, #1
 8003bfa:	9304      	str	r3, [sp, #16]
 8003bfc:	9307      	str	r3, [sp, #28]
 8003bfe:	f88d 3053 	strb.w	r3, [sp, #83]	@ 0x53
 8003c02:	931a      	str	r3, [sp, #104]	@ 0x68
 8003c04:	4654      	mov	r4, sl
 8003c06:	2205      	movs	r2, #5
 8003c08:	f814 1b01 	ldrb.w	r1, [r4], #1
 8003c0c:	484e      	ldr	r0, [pc, #312]	@ (8003d48 <_svfiprintf_r+0x1e4>)
 8003c0e:	f7fc faff 	bl	8000210 <memchr>
 8003c12:	9a04      	ldr	r2, [sp, #16]
 8003c14:	b9d8      	cbnz	r0, 8003c4e <_svfiprintf_r+0xea>
 8003c16:	06d0      	lsls	r0, r2, #27
 8003c18:	bf44      	itt	mi
 8003c1a:	2320      	movmi	r3, #32
 8003c1c:	f88d 3053 	strbmi.w	r3, [sp, #83]	@ 0x53
 8003c20:	0711      	lsls	r1, r2, #28
 8003c22:	bf44      	itt	mi
 8003c24:	232b      	movmi	r3, #43	@ 0x2b
 8003c26:	f88d 3053 	strbmi.w	r3, [sp, #83]	@ 0x53
 8003c2a:	f89a 3000 	ldrb.w	r3, [sl]
 8003c2e:	2b2a      	cmp	r3, #42	@ 0x2a
 8003c30:	d015      	beq.n	8003c5e <_svfiprintf_r+0xfa>
 8003c32:	9a07      	ldr	r2, [sp, #28]
 8003c34:	4654      	mov	r4, sl
 8003c36:	2000      	movs	r0, #0
 8003c38:	f04f 0c0a 	mov.w	ip, #10
 8003c3c:	4621      	mov	r1, r4
 8003c3e:	f811 3b01 	ldrb.w	r3, [r1], #1
 8003c42:	3b30      	subs	r3, #48	@ 0x30
 8003c44:	2b09      	cmp	r3, #9
 8003c46:	d94b      	bls.n	8003ce0 <_svfiprintf_r+0x17c>
 8003c48:	b1b0      	cbz	r0, 8003c78 <_svfiprintf_r+0x114>
 8003c4a:	9207      	str	r2, [sp, #28]
 8003c4c:	e014      	b.n	8003c78 <_svfiprintf_r+0x114>
 8003c4e:	eba0 0308 	sub.w	r3, r0, r8
 8003c52:	fa09 f303 	lsl.w	r3, r9, r3
 8003c56:	4313      	orrs	r3, r2
 8003c58:	9304      	str	r3, [sp, #16]
 8003c5a:	46a2      	mov	sl, r4
 8003c5c:	e7d2      	b.n	8003c04 <_svfiprintf_r+0xa0>
 8003c5e:	9b03      	ldr	r3, [sp, #12]
 8003c60:	1d19      	adds	r1, r3, #4
 8003c62:	681b      	ldr	r3, [r3, #0]
 8003c64:	9103      	str	r1, [sp, #12]
 8003c66:	2b00      	cmp	r3, #0
 8003c68:	bfbb      	ittet	lt
 8003c6a:	425b      	neglt	r3, r3
 8003c6c:	f042 0202 	orrlt.w	r2, r2, #2
 8003c70:	9307      	strge	r3, [sp, #28]
 8003c72:	9307      	strlt	r3, [sp, #28]
 8003c74:	bfb8      	it	lt
 8003c76:	9204      	strlt	r2, [sp, #16]
 8003c78:	7823      	ldrb	r3, [r4, #0]
 8003c7a:	2b2e      	cmp	r3, #46	@ 0x2e
 8003c7c:	d10a      	bne.n	8003c94 <_svfiprintf_r+0x130>
 8003c7e:	7863      	ldrb	r3, [r4, #1]
 8003c80:	2b2a      	cmp	r3, #42	@ 0x2a
 8003c82:	d132      	bne.n	8003cea <_svfiprintf_r+0x186>
 8003c84:	9b03      	ldr	r3, [sp, #12]
 8003c86:	1d1a      	adds	r2, r3, #4
 8003c88:	681b      	ldr	r3, [r3, #0]
 8003c8a:	9203      	str	r2, [sp, #12]
 8003c8c:	ea43 73e3 	orr.w	r3, r3, r3, asr #31
 8003c90:	3402      	adds	r4, #2
 8003c92:	9305      	str	r3, [sp, #20]
 8003c94:	f8df a0c0 	ldr.w	sl, [pc, #192]	@ 8003d58 <_svfiprintf_r+0x1f4>
 8003c98:	7821      	ldrb	r1, [r4, #0]
 8003c9a:	2203      	movs	r2, #3
 8003c9c:	4650      	mov	r0, sl
 8003c9e:	f7fc fab7 	bl	8000210 <memchr>
 8003ca2:	b138      	cbz	r0, 8003cb4 <_svfiprintf_r+0x150>
 8003ca4:	9b04      	ldr	r3, [sp, #16]
 8003ca6:	eba0 000a 	sub.w	r0, r0, sl
 8003caa:	2240      	movs	r2, #64	@ 0x40
 8003cac:	4082      	lsls	r2, r0
 8003cae:	4313      	orrs	r3, r2
 8003cb0:	3401      	adds	r4, #1
 8003cb2:	9304      	str	r3, [sp, #16]
 8003cb4:	f814 1b01 	ldrb.w	r1, [r4], #1
 8003cb8:	4824      	ldr	r0, [pc, #144]	@ (8003d4c <_svfiprintf_r+0x1e8>)
 8003cba:	f88d 1028 	strb.w	r1, [sp, #40]	@ 0x28
 8003cbe:	2206      	movs	r2, #6
 8003cc0:	f7fc faa6 	bl	8000210 <memchr>
 8003cc4:	2800      	cmp	r0, #0
 8003cc6:	d036      	beq.n	8003d36 <_svfiprintf_r+0x1d2>
 8003cc8:	4b21      	ldr	r3, [pc, #132]	@ (8003d50 <_svfiprintf_r+0x1ec>)
 8003cca:	bb1b      	cbnz	r3, 8003d14 <_svfiprintf_r+0x1b0>
 8003ccc:	9b03      	ldr	r3, [sp, #12]
 8003cce:	3307      	adds	r3, #7
 8003cd0:	f023 0307 	bic.w	r3, r3, #7
 8003cd4:	3308      	adds	r3, #8
 8003cd6:	9303      	str	r3, [sp, #12]
 8003cd8:	9b09      	ldr	r3, [sp, #36]	@ 0x24
 8003cda:	4433      	add	r3, r6
 8003cdc:	9309      	str	r3, [sp, #36]	@ 0x24
 8003cde:	e76a      	b.n	8003bb6 <_svfiprintf_r+0x52>
 8003ce0:	fb0c 3202 	mla	r2, ip, r2, r3
 8003ce4:	460c      	mov	r4, r1
 8003ce6:	2001      	movs	r0, #1
 8003ce8:	e7a8      	b.n	8003c3c <_svfiprintf_r+0xd8>
 8003cea:	2300      	movs	r3, #0
 8003cec:	3401      	adds	r4, #1
 8003cee:	9305      	str	r3, [sp, #20]
 8003cf0:	4619      	mov	r1, r3
 8003cf2:	f04f 0c0a 	mov.w	ip, #10
 8003cf6:	4620      	mov	r0, r4
 8003cf8:	f810 2b01 	ldrb.w	r2, [r0], #1
 8003cfc:	3a30      	subs	r2, #48	@ 0x30
 8003cfe:	2a09      	cmp	r2, #9
 8003d00:	d903      	bls.n	8003d0a <_svfiprintf_r+0x1a6>
 8003d02:	2b00      	cmp	r3, #0
 8003d04:	d0c6      	beq.n	8003c94 <_svfiprintf_r+0x130>
 8003d06:	9105      	str	r1, [sp, #20]
 8003d08:	e7c4      	b.n	8003c94 <_svfiprintf_r+0x130>
 8003d0a:	fb0c 2101 	mla	r1, ip, r1, r2
 8003d0e:	4604      	mov	r4, r0
 8003d10:	2301      	movs	r3, #1
 8003d12:	e7f0      	b.n	8003cf6 <_svfiprintf_r+0x192>
 8003d14:	ab03      	add	r3, sp, #12
 8003d16:	9300      	str	r3, [sp, #0]
 8003d18:	462a      	mov	r2, r5
 8003d1a:	4b0e      	ldr	r3, [pc, #56]	@ (8003d54 <_svfiprintf_r+0x1f0>)
 8003d1c:	a904      	add	r1, sp, #16
 8003d1e:	4638      	mov	r0, r7
 8003d20:	f3af 8000 	nop.w
 8003d24:	1c42      	adds	r2, r0, #1
 8003d26:	4606      	mov	r6, r0
 8003d28:	d1d6      	bne.n	8003cd8 <_svfiprintf_r+0x174>
 8003d2a:	89ab      	ldrh	r3, [r5, #12]
 8003d2c:	065b      	lsls	r3, r3, #25
 8003d2e:	f53f af2d 	bmi.w	8003b8c <_svfiprintf_r+0x28>
 8003d32:	9809      	ldr	r0, [sp, #36]	@ 0x24
 8003d34:	e72c      	b.n	8003b90 <_svfiprintf_r+0x2c>
 8003d36:	ab03      	add	r3, sp, #12
 8003d38:	9300      	str	r3, [sp, #0]
 8003d3a:	462a      	mov	r2, r5
 8003d3c:	4b05      	ldr	r3, [pc, #20]	@ (8003d54 <_svfiprintf_r+0x1f0>)
 8003d3e:	a904      	add	r1, sp, #16
 8003d40:	4638      	mov	r0, r7
 8003d42:	f000 f879 	bl	8003e38 <_printf_i>
 8003d46:	e7ed      	b.n	8003d24 <_svfiprintf_r+0x1c0>
 8003d48:	08004341 	.word	0x08004341
 8003d4c:	0800434b 	.word	0x0800434b
 8003d50:	00000000 	.word	0x00000000
 8003d54:	08003aad 	.word	0x08003aad
 8003d58:	08004347 	.word	0x08004347

08003d5c <_printf_common>:
 8003d5c:	e92d 47f0 	stmdb	sp!, {r4, r5, r6, r7, r8, r9, sl, lr}
 8003d60:	4616      	mov	r6, r2
 8003d62:	4698      	mov	r8, r3
 8003d64:	688a      	ldr	r2, [r1, #8]
 8003d66:	690b      	ldr	r3, [r1, #16]
 8003d68:	f8dd 9020 	ldr.w	r9, [sp, #32]
 8003d6c:	4293      	cmp	r3, r2
 8003d6e:	bfb8      	it	lt
 8003d70:	4613      	movlt	r3, r2
 8003d72:	6033      	str	r3, [r6, #0]
 8003d74:	f891 2043 	ldrb.w	r2, [r1, #67]	@ 0x43
 8003d78:	4607      	mov	r7, r0
 8003d7a:	460c      	mov	r4, r1
 8003d7c:	b10a      	cbz	r2, 8003d82 <_printf_common+0x26>
 8003d7e:	3301      	adds	r3, #1
 8003d80:	6033      	str	r3, [r6, #0]
 8003d82:	6823      	ldr	r3, [r4, #0]
 8003d84:	0699      	lsls	r1, r3, #26
 8003d86:	bf42      	ittt	mi
 8003d88:	6833      	ldrmi	r3, [r6, #0]
 8003d8a:	3302      	addmi	r3, #2
 8003d8c:	6033      	strmi	r3, [r6, #0]
 8003d8e:	6825      	ldr	r5, [r4, #0]
 8003d90:	f015 0506 	ands.w	r5, r5, #6
 8003d94:	d106      	bne.n	8003da4 <_printf_common+0x48>
 8003d96:	f104 0a19 	add.w	sl, r4, #25
 8003d9a:	68e3      	ldr	r3, [r4, #12]
 8003d9c:	6832      	ldr	r2, [r6, #0]
 8003d9e:	1a9b      	subs	r3, r3, r2
 8003da0:	42ab      	cmp	r3, r5
 8003da2:	dc26      	bgt.n	8003df2 <_printf_common+0x96>
 8003da4:	f894 3043 	ldrb.w	r3, [r4, #67]	@ 0x43
 8003da8:	6822      	ldr	r2, [r4, #0]
 8003daa:	3b00      	subs	r3, #0
 8003dac:	bf18      	it	ne
 8003dae:	2301      	movne	r3, #1
 8003db0:	0692      	lsls	r2, r2, #26
 8003db2:	d42b      	bmi.n	8003e0c <_printf_common+0xb0>
 8003db4:	f104 0243 	add.w	r2, r4, #67	@ 0x43
 8003db8:	4641      	mov	r1, r8
 8003dba:	4638      	mov	r0, r7
 8003dbc:	47c8      	blx	r9
 8003dbe:	3001      	adds	r0, #1
 8003dc0:	d01e      	beq.n	8003e00 <_printf_common+0xa4>
 8003dc2:	6823      	ldr	r3, [r4, #0]
 8003dc4:	6922      	ldr	r2, [r4, #16]
 8003dc6:	f003 0306 	and.w	r3, r3, #6
 8003dca:	2b04      	cmp	r3, #4
 8003dcc:	bf02      	ittt	eq
 8003dce:	68e5      	ldreq	r5, [r4, #12]
 8003dd0:	6833      	ldreq	r3, [r6, #0]
 8003dd2:	1aed      	subeq	r5, r5, r3
 8003dd4:	68a3      	ldr	r3, [r4, #8]
 8003dd6:	bf0c      	ite	eq
 8003dd8:	ea25 75e5 	biceq.w	r5, r5, r5, asr #31
 8003ddc:	2500      	movne	r5, #0
 8003dde:	4293      	cmp	r3, r2
 8003de0:	bfc4      	itt	gt
 8003de2:	1a9b      	subgt	r3, r3, r2
 8003de4:	18ed      	addgt	r5, r5, r3
 8003de6:	2600      	movs	r6, #0
 8003de8:	341a      	adds	r4, #26
 8003dea:	42b5      	cmp	r5, r6
 8003dec:	d11a      	bne.n	8003e24 <_printf_common+0xc8>
 8003dee:	2000      	movs	r0, #0
 8003df0:	e008      	b.n	8003e04 <_printf_common+0xa8>
 8003df2:	2301      	movs	r3, #1
 8003df4:	4652      	mov	r2, sl
 8003df6:	4641      	mov	r1, r8
 8003df8:	4638      	mov	r0, r7
 8003dfa:	47c8      	blx	r9
 8003dfc:	3001      	adds	r0, #1
 8003dfe:	d103      	bne.n	8003e08 <_printf_common+0xac>
 8003e00:	f04f 30ff 	mov.w	r0, #4294967295
 8003e04:	e8bd 87f0 	ldmia.w	sp!, {r4, r5, r6, r7, r8, r9, sl, pc}
 8003e08:	3501      	adds	r5, #1
 8003e0a:	e7c6      	b.n	8003d9a <_printf_common+0x3e>
 8003e0c:	18e1      	adds	r1, r4, r3
 8003e0e:	1c5a      	adds	r2, r3, #1
 8003e10:	2030      	movs	r0, #48	@ 0x30
 8003e12:	f881 0043 	strb.w	r0, [r1, #67]	@ 0x43
 8003e16:	4422      	add	r2, r4
 8003e18:	f894 1045 	ldrb.w	r1, [r4, #69]	@ 0x45
 8003e1c:	f882 1043 	strb.w	r1, [r2, #67]	@ 0x43
 8003e20:	3302      	adds	r3, #2
 8003e22:	e7c7      	b.n	8003db4 <_printf_common+0x58>
 8003e24:	2301      	movs	r3, #1
 8003e26:	4622      	mov	r2, r4
 8003e28:	4641      	mov	r1, r8
 8003e2a:	4638      	mov	r0, r7
 8003e2c:	47c8      	blx	r9
 8003e2e:	3001      	adds	r0, #1
 8003e30:	d0e6      	beq.n	8003e00 <_printf_common+0xa4>
 8003e32:	3601      	adds	r6, #1
 8003e34:	e7d9      	b.n	8003dea <_printf_common+0x8e>
	...

08003e38 <_printf_i>:
 8003e38:	e92d 47ff 	stmdb	sp!, {r0, r1, r2, r3, r4, r5, r6, r7, r8, r9, sl, lr}
 8003e3c:	7e0f      	ldrb	r7, [r1, #24]
 8003e3e:	9e0c      	ldr	r6, [sp, #48]	@ 0x30
 8003e40:	2f78      	cmp	r7, #120	@ 0x78
 8003e42:	4691      	mov	r9, r2
 8003e44:	4680      	mov	r8, r0
 8003e46:	460c      	mov	r4, r1
 8003e48:	469a      	mov	sl, r3
 8003e4a:	f101 0243 	add.w	r2, r1, #67	@ 0x43
 8003e4e:	d807      	bhi.n	8003e60 <_printf_i+0x28>
 8003e50:	2f62      	cmp	r7, #98	@ 0x62
 8003e52:	d80a      	bhi.n	8003e6a <_printf_i+0x32>
 8003e54:	2f00      	cmp	r7, #0
 8003e56:	f000 80d2 	beq.w	8003ffe <_printf_i+0x1c6>
 8003e5a:	2f58      	cmp	r7, #88	@ 0x58
 8003e5c:	f000 80b9 	beq.w	8003fd2 <_printf_i+0x19a>
 8003e60:	f104 0642 	add.w	r6, r4, #66	@ 0x42
 8003e64:	f884 7042 	strb.w	r7, [r4, #66]	@ 0x42
 8003e68:	e03a      	b.n	8003ee0 <_printf_i+0xa8>
 8003e6a:	f1a7 0363 	sub.w	r3, r7, #99	@ 0x63
 8003e6e:	2b15      	cmp	r3, #21
 8003e70:	d8f6      	bhi.n	8003e60 <_printf_i+0x28>
 8003e72:	a101      	add	r1, pc, #4	@ (adr r1, 8003e78 <_printf_i+0x40>)
 8003e74:	f851 f023 	ldr.w	pc, [r1, r3, lsl #2]
 8003e78:	08003ed1 	.word	0x08003ed1
 8003e7c:	08003ee5 	.word	0x08003ee5
 8003e80:	08003e61 	.word	0x08003e61
 8003e84:	08003e61 	.word	0x08003e61
 8003e88:	08003e61 	.word	0x08003e61
 8003e8c:	08003e61 	.word	0x08003e61
 8003e90:	08003ee5 	.word	0x08003ee5
 8003e94:	08003e61 	.word	0x08003e61
 8003e98:	08003e61 	.word	0x08003e61
 8003e9c:	08003e61 	.word	0x08003e61
 8003ea0:	08003e61 	.word	0x08003e61
 8003ea4:	08003fe5 	.word	0x08003fe5
 8003ea8:	08003f0f 	.word	0x08003f0f
 8003eac:	08003f9f 	.word	0x08003f9f
 8003eb0:	08003e61 	.word	0x08003e61
 8003eb4:	08003e61 	.word	0x08003e61
 8003eb8:	08004007 	.word	0x08004007
 8003ebc:	08003e61 	.word	0x08003e61
 8003ec0:	08003f0f 	.word	0x08003f0f
 8003ec4:	08003e61 	.word	0x08003e61
 8003ec8:	08003e61 	.word	0x08003e61
 8003ecc:	08003fa7 	.word	0x08003fa7
 8003ed0:	6833      	ldr	r3, [r6, #0]
 8003ed2:	1d1a      	adds	r2, r3, #4
 8003ed4:	681b      	ldr	r3, [r3, #0]
 8003ed6:	6032      	str	r2, [r6, #0]
 8003ed8:	f104 0642 	add.w	r6, r4, #66	@ 0x42
 8003edc:	f884 3042 	strb.w	r3, [r4, #66]	@ 0x42
 8003ee0:	2301      	movs	r3, #1
 8003ee2:	e09d      	b.n	8004020 <_printf_i+0x1e8>
 8003ee4:	6833      	ldr	r3, [r6, #0]
 8003ee6:	6820      	ldr	r0, [r4, #0]
 8003ee8:	1d19      	adds	r1, r3, #4
 8003eea:	6031      	str	r1, [r6, #0]
 8003eec:	0606      	lsls	r6, r0, #24
 8003eee:	d501      	bpl.n	8003ef4 <_printf_i+0xbc>
 8003ef0:	681d      	ldr	r5, [r3, #0]
 8003ef2:	e003      	b.n	8003efc <_printf_i+0xc4>
 8003ef4:	0645      	lsls	r5, r0, #25
 8003ef6:	d5fb      	bpl.n	8003ef0 <_printf_i+0xb8>
 8003ef8:	f9b3 5000 	ldrsh.w	r5, [r3]
 8003efc:	2d00      	cmp	r5, #0
 8003efe:	da03      	bge.n	8003f08 <_printf_i+0xd0>
 8003f00:	232d      	movs	r3, #45	@ 0x2d
 8003f02:	426d      	negs	r5, r5
 8003f04:	f884 3043 	strb.w	r3, [r4, #67]	@ 0x43
 8003f08:	4859      	ldr	r0, [pc, #356]	@ (8004070 <_printf_i+0x238>)
 8003f0a:	230a      	movs	r3, #10
 8003f0c:	e011      	b.n	8003f32 <_printf_i+0xfa>
 8003f0e:	6821      	ldr	r1, [r4, #0]
 8003f10:	6833      	ldr	r3, [r6, #0]
 8003f12:	0608      	lsls	r0, r1, #24
 8003f14:	f853 5b04 	ldr.w	r5, [r3], #4
 8003f18:	d402      	bmi.n	8003f20 <_printf_i+0xe8>
 8003f1a:	0649      	lsls	r1, r1, #25
 8003f1c:	bf48      	it	mi
 8003f1e:	b2ad      	uxthmi	r5, r5
 8003f20:	2f6f      	cmp	r7, #111	@ 0x6f
 8003f22:	4853      	ldr	r0, [pc, #332]	@ (8004070 <_printf_i+0x238>)
 8003f24:	6033      	str	r3, [r6, #0]
 8003f26:	bf14      	ite	ne
 8003f28:	230a      	movne	r3, #10
 8003f2a:	2308      	moveq	r3, #8
 8003f2c:	2100      	movs	r1, #0
 8003f2e:	f884 1043 	strb.w	r1, [r4, #67]	@ 0x43
 8003f32:	6866      	ldr	r6, [r4, #4]
 8003f34:	60a6      	str	r6, [r4, #8]
 8003f36:	2e00      	cmp	r6, #0
 8003f38:	bfa2      	ittt	ge
 8003f3a:	6821      	ldrge	r1, [r4, #0]
 8003f3c:	f021 0104 	bicge.w	r1, r1, #4
 8003f40:	6021      	strge	r1, [r4, #0]
 8003f42:	b90d      	cbnz	r5, 8003f48 <_printf_i+0x110>
 8003f44:	2e00      	cmp	r6, #0
 8003f46:	d04b      	beq.n	8003fe0 <_printf_i+0x1a8>
 8003f48:	4616      	mov	r6, r2
 8003f4a:	fbb5 f1f3 	udiv	r1, r5, r3
 8003f4e:	fb03 5711 	mls	r7, r3, r1, r5
 8003f52:	5dc7      	ldrb	r7, [r0, r7]
 8003f54:	f806 7d01 	strb.w	r7, [r6, #-1]!
 8003f58:	462f      	mov	r7, r5
 8003f5a:	42bb      	cmp	r3, r7
 8003f5c:	460d      	mov	r5, r1
 8003f5e:	d9f4      	bls.n	8003f4a <_printf_i+0x112>
 8003f60:	2b08      	cmp	r3, #8
 8003f62:	d10b      	bne.n	8003f7c <_printf_i+0x144>
 8003f64:	6823      	ldr	r3, [r4, #0]
 8003f66:	07df      	lsls	r7, r3, #31
 8003f68:	d508      	bpl.n	8003f7c <_printf_i+0x144>
 8003f6a:	6923      	ldr	r3, [r4, #16]
 8003f6c:	6861      	ldr	r1, [r4, #4]
 8003f6e:	4299      	cmp	r1, r3
 8003f70:	bfde      	ittt	le
 8003f72:	2330      	movle	r3, #48	@ 0x30
 8003f74:	f806 3c01 	strble.w	r3, [r6, #-1]
 8003f78:	f106 36ff 	addle.w	r6, r6, #4294967295
 8003f7c:	1b92      	subs	r2, r2, r6
 8003f7e:	6122      	str	r2, [r4, #16]
 8003f80:	f8cd a000 	str.w	sl, [sp]
 8003f84:	464b      	mov	r3, r9
 8003f86:	aa03      	add	r2, sp, #12
 8003f88:	4621      	mov	r1, r4
 8003f8a:	4640      	mov	r0, r8
 8003f8c:	f7ff fee6 	bl	8003d5c <_printf_common>
 8003f90:	3001      	adds	r0, #1
 8003f92:	d14a      	bne.n	800402a <_printf_i+0x1f2>
 8003f94:	f04f 30ff 	mov.w	r0, #4294967295
 8003f98:	b004      	add	sp, #16
 8003f9a:	e8bd 87f0 	ldmia.w	sp!, {r4, r5, r6, r7, r8, r9, sl, pc}
 8003f9e:	6823      	ldr	r3, [r4, #0]
 8003fa0:	f043 0320 	orr.w	r3, r3, #32
 8003fa4:	6023      	str	r3, [r4, #0]
 8003fa6:	4833      	ldr	r0, [pc, #204]	@ (8004074 <_printf_i+0x23c>)
 8003fa8:	2778      	movs	r7, #120	@ 0x78
 8003faa:	f884 7045 	strb.w	r7, [r4, #69]	@ 0x45
 8003fae:	6823      	ldr	r3, [r4, #0]
 8003fb0:	6831      	ldr	r1, [r6, #0]
 8003fb2:	061f      	lsls	r7, r3, #24
 8003fb4:	f851 5b04 	ldr.w	r5, [r1], #4
 8003fb8:	d402      	bmi.n	8003fc0 <_printf_i+0x188>
 8003fba:	065f      	lsls	r7, r3, #25
 8003fbc:	bf48      	it	mi
 8003fbe:	b2ad      	uxthmi	r5, r5
 8003fc0:	6031      	str	r1, [r6, #0]
 8003fc2:	07d9      	lsls	r1, r3, #31
 8003fc4:	bf44      	itt	mi
 8003fc6:	f043 0320 	orrmi.w	r3, r3, #32
 8003fca:	6023      	strmi	r3, [r4, #0]
 8003fcc:	b11d      	cbz	r5, 8003fd6 <_printf_i+0x19e>
 8003fce:	2310      	movs	r3, #16
 8003fd0:	e7ac      	b.n	8003f2c <_printf_i+0xf4>
 8003fd2:	4827      	ldr	r0, [pc, #156]	@ (8004070 <_printf_i+0x238>)
 8003fd4:	e7e9      	b.n	8003faa <_printf_i+0x172>
 8003fd6:	6823      	ldr	r3, [r4, #0]
 8003fd8:	f023 0320 	bic.w	r3, r3, #32
 8003fdc:	6023      	str	r3, [r4, #0]
 8003fde:	e7f6      	b.n	8003fce <_printf_i+0x196>
 8003fe0:	4616      	mov	r6, r2
 8003fe2:	e7bd      	b.n	8003f60 <_printf_i+0x128>
 8003fe4:	6833      	ldr	r3, [r6, #0]
 8003fe6:	6825      	ldr	r5, [r4, #0]
 8003fe8:	6961      	ldr	r1, [r4, #20]
 8003fea:	1d18      	adds	r0, r3, #4
 8003fec:	6030      	str	r0, [r6, #0]
 8003fee:	062e      	lsls	r6, r5, #24
 8003ff0:	681b      	ldr	r3, [r3, #0]
 8003ff2:	d501      	bpl.n	8003ff8 <_printf_i+0x1c0>
 8003ff4:	6019      	str	r1, [r3, #0]
 8003ff6:	e002      	b.n	8003ffe <_printf_i+0x1c6>
 8003ff8:	0668      	lsls	r0, r5, #25
 8003ffa:	d5fb      	bpl.n	8003ff4 <_printf_i+0x1bc>
 8003ffc:	8019      	strh	r1, [r3, #0]
 8003ffe:	2300      	movs	r3, #0
 8004000:	6123      	str	r3, [r4, #16]
 8004002:	4616      	mov	r6, r2
 8004004:	e7bc      	b.n	8003f80 <_printf_i+0x148>
 8004006:	6833      	ldr	r3, [r6, #0]
 8004008:	1d1a      	adds	r2, r3, #4
 800400a:	6032      	str	r2, [r6, #0]
 800400c:	681e      	ldr	r6, [r3, #0]
 800400e:	6862      	ldr	r2, [r4, #4]
 8004010:	2100      	movs	r1, #0
 8004012:	4630      	mov	r0, r6
 8004014:	f7fc f8fc 	bl	8000210 <memchr>
 8004018:	b108      	cbz	r0, 800401e <_printf_i+0x1e6>
 800401a:	1b80      	subs	r0, r0, r6
 800401c:	6060      	str	r0, [r4, #4]
 800401e:	6863      	ldr	r3, [r4, #4]
 8004020:	6123      	str	r3, [r4, #16]
 8004022:	2300      	movs	r3, #0
 8004024:	f884 3043 	strb.w	r3, [r4, #67]	@ 0x43
 8004028:	e7aa      	b.n	8003f80 <_printf_i+0x148>
 800402a:	6923      	ldr	r3, [r4, #16]
 800402c:	4632      	mov	r2, r6
 800402e:	4649      	mov	r1, r9
 8004030:	4640      	mov	r0, r8
 8004032:	47d0      	blx	sl
 8004034:	3001      	adds	r0, #1
 8004036:	d0ad      	beq.n	8003f94 <_printf_i+0x15c>
 8004038:	6823      	ldr	r3, [r4, #0]
 800403a:	079b      	lsls	r3, r3, #30
 800403c:	d413      	bmi.n	8004066 <_printf_i+0x22e>
 800403e:	68e0      	ldr	r0, [r4, #12]
 8004040:	9b03      	ldr	r3, [sp, #12]
 8004042:	4298      	cmp	r0, r3
 8004044:	bfb8      	it	lt
 8004046:	4618      	movlt	r0, r3
 8004048:	e7a6      	b.n	8003f98 <_printf_i+0x160>
 800404a:	2301      	movs	r3, #1
 800404c:	4632      	mov	r2, r6
 800404e:	4649      	mov	r1, r9
 8004050:	4640      	mov	r0, r8
 8004052:	47d0      	blx	sl
 8004054:	3001      	adds	r0, #1
 8004056:	d09d      	beq.n	8003f94 <_printf_i+0x15c>
 8004058:	3501      	adds	r5, #1
 800405a:	68e3      	ldr	r3, [r4, #12]
 800405c:	9903      	ldr	r1, [sp, #12]
 800405e:	1a5b      	subs	r3, r3, r1
 8004060:	42ab      	cmp	r3, r5
 8004062:	dcf2      	bgt.n	800404a <_printf_i+0x212>
 8004064:	e7eb      	b.n	800403e <_printf_i+0x206>
 8004066:	2500      	movs	r5, #0
 8004068:	f104 0619 	add.w	r6, r4, #25
 800406c:	e7f5      	b.n	800405a <_printf_i+0x222>
 800406e:	bf00      	nop
 8004070:	08004352 	.word	0x08004352
 8004074:	08004363 	.word	0x08004363

08004078 <memmove>:
 8004078:	4288      	cmp	r0, r1
 800407a:	b510      	push	{r4, lr}
 800407c:	eb01 0402 	add.w	r4, r1, r2
 8004080:	d902      	bls.n	8004088 <memmove+0x10>
 8004082:	4284      	cmp	r4, r0
 8004084:	4623      	mov	r3, r4
 8004086:	d807      	bhi.n	8004098 <memmove+0x20>
 8004088:	1e43      	subs	r3, r0, #1
 800408a:	42a1      	cmp	r1, r4
 800408c:	d008      	beq.n	80040a0 <memmove+0x28>
 800408e:	f811 2b01 	ldrb.w	r2, [r1], #1
 8004092:	f803 2f01 	strb.w	r2, [r3, #1]!
 8004096:	e7f8      	b.n	800408a <memmove+0x12>
 8004098:	4402      	add	r2, r0
 800409a:	4601      	mov	r1, r0
 800409c:	428a      	cmp	r2, r1
 800409e:	d100      	bne.n	80040a2 <memmove+0x2a>
 80040a0:	bd10      	pop	{r4, pc}
 80040a2:	f813 4d01 	ldrb.w	r4, [r3, #-1]!
 80040a6:	f802 4d01 	strb.w	r4, [r2, #-1]!
 80040aa:	e7f7      	b.n	800409c <memmove+0x24>

080040ac <_sbrk_r>:
 80040ac:	b538      	push	{r3, r4, r5, lr}
 80040ae:	4d06      	ldr	r5, [pc, #24]	@ (80040c8 <_sbrk_r+0x1c>)
 80040b0:	2300      	movs	r3, #0
 80040b2:	4604      	mov	r4, r0
 80040b4:	4608      	mov	r0, r1
 80040b6:	602b      	str	r3, [r5, #0]
 80040b8:	f7fd fb52 	bl	8001760 <_sbrk>
 80040bc:	1c43      	adds	r3, r0, #1
 80040be:	d102      	bne.n	80040c6 <_sbrk_r+0x1a>
 80040c0:	682b      	ldr	r3, [r5, #0]
 80040c2:	b103      	cbz	r3, 80040c6 <_sbrk_r+0x1a>
 80040c4:	6023      	str	r3, [r4, #0]
 80040c6:	bd38      	pop	{r3, r4, r5, pc}
 80040c8:	20000740 	.word	0x20000740

080040cc <memcpy>:
 80040cc:	440a      	add	r2, r1
 80040ce:	4291      	cmp	r1, r2
 80040d0:	f100 33ff 	add.w	r3, r0, #4294967295
 80040d4:	d100      	bne.n	80040d8 <memcpy+0xc>
 80040d6:	4770      	bx	lr
 80040d8:	b510      	push	{r4, lr}
 80040da:	f811 4b01 	ldrb.w	r4, [r1], #1
 80040de:	f803 4f01 	strb.w	r4, [r3, #1]!
 80040e2:	4291      	cmp	r1, r2
 80040e4:	d1f9      	bne.n	80040da <memcpy+0xe>
 80040e6:	bd10      	pop	{r4, pc}

080040e8 <_realloc_r>:
 80040e8:	e92d 41f0 	stmdb	sp!, {r4, r5, r6, r7, r8, lr}
 80040ec:	4680      	mov	r8, r0
 80040ee:	4615      	mov	r5, r2
 80040f0:	460c      	mov	r4, r1
 80040f2:	b921      	cbnz	r1, 80040fe <_realloc_r+0x16>
 80040f4:	e8bd 41f0 	ldmia.w	sp!, {r4, r5, r6, r7, r8, lr}
 80040f8:	4611      	mov	r1, r2
 80040fa:	f7ff bc4b 	b.w	8003994 <_malloc_r>
 80040fe:	b92a      	cbnz	r2, 800410c <_realloc_r+0x24>
 8004100:	f7ff fbdc 	bl	80038bc <_free_r>
 8004104:	2400      	movs	r4, #0
 8004106:	4620      	mov	r0, r4
 8004108:	e8bd 81f0 	ldmia.w	sp!, {r4, r5, r6, r7, r8, pc}
 800410c:	f000 f81a 	bl	8004144 <_malloc_usable_size_r>
 8004110:	4285      	cmp	r5, r0
 8004112:	4606      	mov	r6, r0
 8004114:	d802      	bhi.n	800411c <_realloc_r+0x34>
 8004116:	ebb5 0f50 	cmp.w	r5, r0, lsr #1
 800411a:	d8f4      	bhi.n	8004106 <_realloc_r+0x1e>
 800411c:	4629      	mov	r1, r5
 800411e:	4640      	mov	r0, r8
 8004120:	f7ff fc38 	bl	8003994 <_malloc_r>
 8004124:	4607      	mov	r7, r0
 8004126:	2800      	cmp	r0, #0
 8004128:	d0ec      	beq.n	8004104 <_realloc_r+0x1c>
 800412a:	42b5      	cmp	r5, r6
 800412c:	462a      	mov	r2, r5
 800412e:	4621      	mov	r1, r4
 8004130:	bf28      	it	cs
 8004132:	4632      	movcs	r2, r6
 8004134:	f7ff ffca 	bl	80040cc <memcpy>
 8004138:	4621      	mov	r1, r4
 800413a:	4640      	mov	r0, r8
 800413c:	f7ff fbbe 	bl	80038bc <_free_r>
 8004140:	463c      	mov	r4, r7
 8004142:	e7e0      	b.n	8004106 <_realloc_r+0x1e>

08004144 <_malloc_usable_size_r>:
 8004144:	f851 3c04 	ldr.w	r3, [r1, #-4]
 8004148:	1f18      	subs	r0, r3, #4
 800414a:	2b00      	cmp	r3, #0
 800414c:	bfbc      	itt	lt
 800414e:	580b      	ldrlt	r3, [r1, r0]
 8004150:	18c0      	addlt	r0, r0, r3
 8004152:	4770      	bx	lr

08004154 <_init>:
 8004154:	b5f8      	push	{r3, r4, r5, r6, r7, lr}
 8004156:	bf00      	nop
 8004158:	bcf8      	pop	{r3, r4, r5, r6, r7}
 800415a:	bc08      	pop	{r3}
 800415c:	469e      	mov	lr, r3
 800415e:	4770      	bx	lr

08004160 <_fini>:
 8004160:	b5f8      	push	{r3, r4, r5, r6, r7, lr}
 8004162:	bf00      	nop
 8004164:	bcf8      	pop	{r3, r4, r5, r6, r7}
 8004166:	bc08      	pop	{r3}
 8004168:	469e      	mov	lr, r3
 800416a:	4770      	bx	lr
